(dp0
S'packet-homeplug.c'
p1
(dp2
S'wtap_register'
p3
(lp4
sS'proto_reg'
p5
(lp6
S'proto_register_homeplug'
p7
asS'handoff_reg'
p8
(lp9
S'proto_reg_handoff_homeplug'
p10
asS'mtime'
p11
I1539357766
ssS'packet-pgsql.c'
p12
(dp13
g3
(lp14
sg5
(lp15
S'proto_register_pgsql'
p16
asg8
(lp17
S'proto_reg_handoff_pgsql'
p18
asg11
I1539357737
ssS'packet-aruba-adp.c'
p19
(dp20
g3
(lp21
sg5
(lp22
S'proto_register_aruba_adp'
p23
asg8
(lp24
S'proto_reg_handoff_aruba_adp'
p25
asg11
I1539357679
ssS'packet-dcerpc-rs_replist.c'
p26
(dp27
g3
(lp28
sg5
(lp29
S'proto_register_rs_replist'
p30
asg8
(lp31
S'proto_reg_handoff_rs_replist'
p32
asg11
I1539357795
ssS'packet-raw.c'
p33
(dp34
g3
(lp35
sg5
(lp36
S'proto_register_raw'
p37
asg8
(lp38
S'proto_reg_handoff_raw'
p39
asg11
I1539357649
ssS'packet-etheric.c'
p40
(dp41
g3
(lp42
sg5
(lp43
S'proto_register_etheric'
p44
asg8
(lp45
S'proto_reg_handoff_etheric'
p46
asg11
I1539357691
ssS'packet-e100.c'
p47
(dp48
g3
(lp49
sg5
(lp50
S'proto_register_e100'
p51
asg8
(lp52
S'proto_reg_handoff_e100'
p53
asg11
I1539357672
ssS'packet-rnsap.c'
p54
(dp55
g3
(lp56
sg5
(lp57
S'proto_register_rnsap'
p58
asg8
(lp59
S'proto_reg_handoff_rnsap'
p60
asg11
I1539358236
ssS'packet-rtse.c'
p61
(dp62
g3
(lp63
sg5
(lp64
S'proto_register_rtse'
p65
asg8
(lp66
S'proto_reg_handoff_rtse'
p67
asg11
I1539357709
ssS'packet-nasdaq-soup.c'
p68
(dp69
g3
(lp70
sg5
(lp71
S'proto_register_nasdaq_soup'
p72
asg8
(lp73
S'proto_reg_handoff_nasdaq_soup'
p74
asg11
I1539357645
ssS'packet-bthci_acl.c'
p75
(dp76
g3
(lp77
sg5
(lp78
S'proto_register_btacl'
p79
asg8
(lp80
S'proto_reg_handoff_btacl'
p81
asg11
I1539357773
ssS'packet-stun2.c'
p82
(dp83
g3
(lp84
sg5
(lp85
S'proto_register_stun2'
p86
asg8
(lp87
S'proto_reg_handoff_stun2'
p88
asg11
I1539357673
ssS'packet-h248_3gpp.c'
p89
(dp90
g3
(lp91
sg5
(lp92
S'proto_register_h248_3gpp'
p93
asg8
(lp94
sg11
I1539357731
ssS'packet-aim-directory.c'
p95
(dp96
g3
(lp97
sg5
(lp98
S'proto_register_aim_directory'
p99
asg8
(lp100
S'proto_reg_handoff_aim_directory'
p101
asg11
I1539357885
ssS'packet-dhcpv6.c'
p102
(dp103
g3
(lp104
sg5
(lp105
S'proto_register_dhcpv6'
p106
asg8
(lp107
S'proto_reg_handoff_dhcpv6'
p108
asg11
I1539357917
ssS'packet-gtpv2.c'
p109
(dp110
g3
(lp111
sg5
(lp112
S'proto_register_gtpv2'
p113
asg8
(lp114
S'proto_reg_handoff_gtpv2'
p115
asg11
I1539357705
ssS'packet-dcerpc-rs_attr.c'
p116
(dp117
g3
(lp118
sg5
(lp119
S'proto_register_rs_attr'
p120
asg8
(lp121
S'proto_reg_handoff_rs_attr'
p122
asg11
I1539357876
ssS'packet-nfsauth.c'
p123
(dp124
g3
(lp125
sg5
(lp126
S'proto_register_nfsauth'
p127
asg8
(lp128
S'proto_reg_handoff_nfsauth'
p129
asg11
I1539357693
ssS'packet-fcp.c'
p130
(dp131
g3
(lp132
sg5
(lp133
S'proto_register_fcp'
p134
asg8
(lp135
S'proto_reg_handoff_fcp'
p136
asg11
I1539357732
ssS'packet-ssl.c'
p137
(dp138
g3
(lp139
sg5
(lp140
S'proto_register_ssl'
p141
asg8
(lp142
S'proto_reg_handoff_ssl'
p143
asg11
I1539357725
ssS'packet-ipxwan.c'
p144
(dp145
g3
(lp146
sg5
(lp147
S'proto_register_ipxwan'
p148
asg8
(lp149
S'proto_reg_handoff_ipxwan'
p150
asg11
I1539357737
ssS'packet-dcerpc-svcctl.c'
p151
(dp152
g3
(lp153
sg5
(lp154
S'proto_register_dcerpc_svcctl'
p155
asg8
(lp156
S'proto_reg_handoff_dcerpc_svcctl'
p157
asg11
I1539357790
ssS'packet-bootparams.c'
p158
(dp159
g3
(lp160
sg5
(lp161
S'proto_register_bootparams'
p162
asg8
(lp163
S'proto_reg_handoff_bootparams'
p164
asg11
I1539357659
ssS'packet-dcerpc-rs_unix.c'
p165
(dp166
g3
(lp167
sg5
(lp168
S'proto_register_rs_unix'
p169
asg8
(lp170
S'proto_reg_handoff_rs_unix'
p171
asg11
I1539357890
ssS'packet-dcerpc-cds_solicit.c'
p172
(dp173
g3
(lp174
sg5
(lp175
S'proto_register_cds_solicit'
p176
asg8
(lp177
S'proto_reg_handoff_cds_solicit'
p178
asg11
I1539357745
ssS'packet-bofl.c'
p179
(dp180
g3
(lp181
sg5
(lp182
S'proto_register_bofl'
p183
asg8
(lp184
S'proto_reg_handoff_bofl'
p185
asg11
I1539357788
ssS'packet-aim-chat.c'
p186
(dp187
g3
(lp188
sg5
(lp189
S'proto_register_aim_chat'
p190
asg8
(lp191
S'proto_reg_handoff_aim_chat'
p192
asg11
I1539357758
ssS'packet-e164.c'
p193
(dp194
g3
(lp195
sg5
(lp196
S'proto_register_e164'
p197
asg8
(lp198
sg11
I1539357739
ssS'packet-tpkt.c'
p199
(dp200
g3
(lp201
sg5
(lp202
S'proto_register_tpkt'
p203
asg8
(lp204
S'proto_reg_handoff_tpkt'
p205
asg11
I1539357782
ssS'packet-sebek.c'
p206
(dp207
g3
(lp208
sg5
(lp209
S'proto_register_sebek'
p210
asg8
(lp211
S'proto_reg_handoff_sebek'
p212
asg11
I1539357696
ssS'packet-fcswils.c'
p213
(dp214
g3
(lp215
sg5
(lp216
S'proto_register_fcswils'
p217
asg8
(lp218
S'proto_reg_handoff_fcswils'
p219
asg11
I1539357782
ssS'packet-nettl.c'
p220
(dp221
g3
(lp222
sg5
(lp223
S'proto_register_nettl'
p224
asg8
(lp225
S'proto_reg_handoff_nettl'
p226
asg11
I1539357724
ssS'packet-wcp.c'
p227
(dp228
g3
(lp229
sg5
(lp230
S'proto_register_wcp'
p231
asg8
(lp232
S'proto_reg_handoff_wcp'
p233
asg11
I1539357787
ssS'packet-dcerpc-cds_clerkserver.c'
p234
(dp235
g3
(lp236
sg5
(lp237
S'proto_register_cds_clerkserver'
p238
asg8
(lp239
S'proto_reg_handoff_cds_clerkserver'
p240
asg11
I1539357912
ssS'packet-amr.c'
p241
(dp242
g3
(lp243
sg5
(lp244
S'proto_register_amr'
p245
asg8
(lp246
S'proto_reg_handoff_amr'
p247
asg11
I1539357702
ssS'packet-uts.c'
p248
(dp249
g3
(lp250
sg5
(lp251
S'proto_register_uts'
p252
asg8
(lp253
sg11
I1539357761
ssS'packet-gsm_a_common.c'
p254
(dp255
g3
(lp256
sg5
(lp257
S'proto_register_gsm_a_common'
p258
asg8
(lp259
S'proto_reg_handoff_gsm_a_common'
p260
asg11
I1539357773
ssS'packet-h323.c'
p261
(dp262
g3
(lp263
sg5
(lp264
S'proto_register_h323'
p265
asg8
(lp266
S'proto_reg_handoff_h323'
p267
asg11
I1539357655
ssS'packet-nt-sonmp.c'
p268
(dp269
g3
(lp270
sg5
(lp271
S'proto_register_sonmp'
p272
asg8
(lp273
S'proto_reg_handoff_sonmp'
p274
asg11
I1539357664
ssS'packet-dcerpc-epm.c'
p275
(dp276
g3
(lp277
sg5
(lp278
S'proto_register_epm'
p279
asg8
(lp280
S'proto_reg_handoff_epm'
p281
asg11
I1539357919
ssS'packet-zbee-zdp-binding.c'
p282
(dp283
g3
(lp284
sg5
(lp285
sg8
(lp286
sg11
I1539357911
ssS'packet-wfleet-hdlc.c'
p287
(dp288
g3
(lp289
sg5
(lp290
S'proto_register_wfleet_hdlc'
p291
asg8
(lp292
S'proto_reg_handoff_wfleet_hdlc'
p293
asg11
I1539357699
ssS'packet-lldp.c'
p294
(dp295
g3
(lp296
sg5
(lp297
S'proto_register_lldp'
p298
asg8
(lp299
S'proto_reg_handoff_lldp'
p300
asg11
I1539357763
ssS'packet-dcerpc-rs_bind.c'
p301
(dp302
g3
(lp303
sg5
(lp304
S'proto_register_rs_bind'
p305
asg8
(lp306
S'proto_reg_handoff_rs_bind'
p307
asg11
I1539357641
ssS'packet-aim-userlookup.c'
p308
(dp309
g3
(lp310
sg5
(lp311
S'proto_register_aim_userlookup'
p312
asg8
(lp313
S'proto_reg_handoff_aim_userlookup'
p314
asg11
I1539357671
ssS'packet-pw-eth.c'
p315
(dp316
g3
(lp317
sg5
(lp318
S'proto_register_pw_eth'
p319
asg8
(lp320
S'proto_reg_handoff_pw_eth'
p321
asg11
I1539357649
ssS'packet-zbee-nwk.c'
p322
(dp323
g3
(lp324
sg5
(lp325
S'proto_register_zbee_nwk'
p326
asg8
(lp327
S'proto_reg_handoff_zbee_nwk'
p328
asg11
I1539357938
ssS'packet-aarp.c'
p329
(dp330
g3
(lp331
sg5
(lp332
S'proto_register_aarp'
p333
asg8
(lp334
S'proto_reg_handoff_aarp'
p335
asg11
I1539357684
ssS'packet-dcerpc-rs_prop_plcy.c'
p336
(dp337
g3
(lp338
sg5
(lp339
S'proto_register_rs_prop_plcy'
p340
asg8
(lp341
S'proto_reg_handoff_rs_prop_plcy'
p342
asg11
I1539357704
ssS'packet-mrdisc.c'
p343
(dp344
g3
(lp345
sg5
(lp346
S'proto_register_mrdisc'
p347
asg8
(lp348
sg11
I1539357710
ssS'packet-h450-ros.c'
p349
(dp350
g3
(lp351
sg5
(lp352
S'proto_register_h450_ros'
p353
asg8
(lp354
S'proto_reg_handoff_h450_ros'
p355
asg11
I1539357880
ssS'packet-dec-dnart.c'
p356
(dp357
g3
(lp358
sg5
(lp359
S'proto_register_dec_rt'
p360
asg8
(lp361
S'proto_reg_handoff_dec_rt'
p362
asg11
I1539357688
ssS'packet-vnc.c'
p363
(dp364
g3
(lp365
sg5
(lp366
S'proto_register_vnc'
p367
asg8
(lp368
S'proto_reg_handoff_vnc'
p369
asg11
I1539357820
ssS'packet-cdt.c'
p370
(dp371
g3
(lp372
sg5
(lp373
S'proto_register_cdt'
p374
asg8
(lp375
S'proto_reg_handoff_cdt'
p376
asg11
I1539357704
ssS'packet-pw-common.c'
p377
(dp378
g3
(lp379
sg5
(lp380
sg8
(lp381
sg11
I1539357875
ssS'packet-sndcp.c'
p382
(dp383
g3
(lp384
sg5
(lp385
S'proto_register_sndcp'
p386
asg8
(lp387
S'proto_reg_handoff_sndcp'
p388
asg11
I1539357691
ssS'packet-nlsp.c'
p389
(dp390
g3
(lp391
sg5
(lp392
S'proto_register_nlsp'
p393
asg8
(lp394
S'proto_reg_handoff_nlsp'
p395
asg11
I1539357794
ssS'packet-ipsec-tcp.c'
p396
(dp397
g3
(lp398
sg5
(lp399
S'proto_register_tcpencap'
p400
asg8
(lp401
S'proto_reg_handoff_tcpencap'
p402
asg11
I1539357911
ssS'packet-vrrp.c'
p403
(dp404
g3
(lp405
sg5
(lp406
S'proto_register_vrrp'
p407
asg8
(lp408
S'proto_reg_handoff_vrrp'
p409
asg11
I1539357646
ssS'packet-teimanagement.c'
p410
(dp411
g3
(lp412
sg5
(lp413
S'proto_register_teimanagement'
p414
asg8
(lp415
S'proto_reg_handoff_teimanagement'
p416
asg11
I1539357678
ssS'packet-vlan.c'
p417
(dp418
g3
(lp419
sg5
(lp420
S'proto_register_vlan'
p421
asg8
(lp422
S'proto_reg_handoff_vlan'
p423
asg11
I1539357832
ssS'packet-xcsl.c'
p424
(dp425
g3
(lp426
sg5
(lp427
S'proto_register_xcsl'
p428
asg8
(lp429
S'proto_reg_handoff_xcsl'
p430
asg11
I1539357798
ssS'packet-wtp.c'
p431
(dp432
g3
(lp433
sg5
(lp434
S'proto_register_wtp'
p435
asg8
(lp436
S'proto_reg_handoff_wtp'
p437
asg11
I1539357664
ssS'packet-trmac.c'
p438
(dp439
g3
(lp440
sg5
(lp441
S'proto_register_trmac'
p442
asg8
(lp443
sg11
I1539357851
ssS'packet-ansi_801.c'
p444
(dp445
g3
(lp446
sg5
(lp447
S'proto_register_ansi_801'
p448
asg8
(lp449
S'proto_reg_handoff_ansi_801'
p450
asg11
I1539357873
ssS'packet-maccontrol.c'
p451
(dp452
g3
(lp453
sg5
(lp454
S'proto_register_macctrl'
p455
asg8
(lp456
S'proto_reg_handoff_macctrl'
p457
asg11
I1539357697
ssS'packet-irc.c'
p458
(dp459
g3
(lp460
sg5
(lp461
S'proto_register_irc'
p462
asg8
(lp463
S'proto_reg_handoff_irc'
p464
asg11
I1539357874
ssS'packet-dcom-remact.c'
p465
(dp466
g3
(lp467
sg5
(lp468
S'proto_register_remact'
p469
asg8
(lp470
S'proto_reg_handoff_remact'
p471
asg11
I1539357822
ssS'packet-xot.c'
p472
(dp473
g3
(lp474
sg5
(lp475
S'proto_register_xot'
p476
asg8
(lp477
S'proto_reg_handoff_xot'
p478
asg11
I1539357667
ssS'packet-quake3.c'
p479
(dp480
g3
(lp481
sg5
(lp482
S'proto_register_quake3'
p483
asg8
(lp484
S'proto_reg_handoff_quake3'
p485
asg11
I1539357775
ssS'packet-dis.c'
p486
(dp487
g3
(lp488
sg5
(lp489
S'proto_register_dis'
p490
asg8
(lp491
S'proto_reg_handoff_dis'
p492
asg11
I1539357782
ssS'packet-cast.c'
p493
(dp494
g3
(lp495
sg5
(lp496
S'proto_register_cast'
p497
asg8
(lp498
S'proto_reg_handoff_cast'
p499
asg11
I1539357786
ssS'packet-x509if.c'
p500
(dp501
g3
(lp502
sg5
(lp503
S'proto_register_x509if'
p504
asg8
(lp505
S'proto_reg_handoff_x509if'
p506
asg11
I1539357947
ssS'packet-bthci_cmd.c'
p507
(dp508
g3
(lp509
sg5
(lp510
S'proto_register_bthci_cmd'
p511
asg8
(lp512
S'proto_reg_handoff_bthci_cmd'
p513
asg11
I1539357820
ssS'packet-lmi.c'
p514
(dp515
g3
(lp516
sg5
(lp517
S'proto_register_lmi'
p518
asg8
(lp519
S'proto_reg_handoff_lmi'
p520
asg11
I1539357661
ssS'packet-dis-fields.c'
p521
(dp522
g3
(lp523
sg5
(lp524
sg8
(lp525
sg11
I1539357822
ssS'packet-isis-hello.c'
p526
(dp527
g3
(lp528
sg5
(lp529
sg8
(lp530
sg11
I1539357847
ssS'packet-ros.c'
p531
(dp532
g3
(lp533
sg5
(lp534
S'proto_register_ros'
p535
asg8
(lp536
S'proto_reg_handoff_ros'
p537
asg11
I1539357885
ssS'packet-h248_10.c'
p538
(dp539
g3
(lp540
sg5
(lp541
S'proto_register_h248_dot10'
p542
asg8
(lp543
sg11
I1539357841
ssS'packet-ncp.c'
p544
(dp545
g3
(lp546
sg5
(lp547
S'proto_register_ncp'
p548
asg8
(lp549
S'proto_reg_handoff_ncp'
p550
asg11
I1539357932
ssS'packet-fddi.c'
p551
(dp552
g3
(lp553
sg5
(lp554
S'proto_register_fddi'
p555
asg8
(lp556
S'proto_reg_handoff_fddi'
p557
asg11
I1539357672
ssS'packet-dcerpc-roverride.c'
p558
(dp559
g3
(lp560
sg5
(lp561
S'proto_register_roverride'
p562
asg8
(lp563
S'proto_reg_handoff_roverride'
p564
asg11
I1539357696
ssS'packet-pres.c'
p565
(dp566
g3
(lp567
sg5
(lp568
S'proto_register_pres'
p569
asg8
(lp570
S'proto_reg_handoff_pres'
p571
asg11
I1539357791
ssS'packet-time.c'
p572
(dp573
g3
(lp574
sg5
(lp575
S'proto_register_time'
p576
asg8
(lp577
S'proto_reg_handoff_time'
p578
asg11
I1539357767
ssS'packet-ncp2222.c'
p579
(dp580
g3
(lp581
sg5
(lp582
S'proto_register_ncp2222'
p583
asg8
(lp584
sg11
I1539358116
ssS'packet-pingpongprotocol.c'
p585
(dp586
g3
(lp587
sg5
(lp588
S'proto_register_pingpongprotocol'
p589
asg8
(lp590
S'proto_reg_handoff_pingpongprotocol'
p591
asg11
I1539357722
ssS'packet-daap.c'
p592
(dp593
g3
(lp594
sg5
(lp595
S'proto_register_daap'
p596
asg8
(lp597
S'proto_reg_handoff_daap'
p598
asg11
I1539357663
ssS'packet-wccp.c'
p599
(dp600
g3
(lp601
sg5
(lp602
S'proto_register_wccp'
p603
asg8
(lp604
S'proto_reg_handoff_wccp'
p605
asg11
I1539357821
ssS'packet-icmpv6.c'
p606
(dp607
g3
(lp608
sg5
(lp609
S'proto_register_icmpv6'
p610
asg8
(lp611
S'proto_reg_handoff_icmpv6'
p612
asg11
I1539357726
ssS'packet-llt.c'
p613
(dp614
g3
(lp615
sg5
(lp616
S'proto_register_llt'
p617
asg8
(lp618
S'proto_reg_handoff_llt'
p619
asg11
I1539357685
ssS'packet-isis.c'
p620
(dp621
g3
(lp622
sg5
(lp623
S'proto_register_isis'
p624
asg8
(lp625
S'proto_reg_handoff_isis'
p626
asg11
I1539357793
ssS'packet-sccpmg.c'
p627
(dp628
g3
(lp629
sg5
(lp630
S'proto_register_sccpmg'
p631
asg8
(lp632
S'proto_reg_handoff_sccpmg'
p633
asg11
I1539357645
ssS'packet-gdsdb.c'
p634
(dp635
g3
(lp636
sg5
(lp637
S'proto_register_gdsdb'
p638
asg8
(lp639
S'proto_reg_handoff_gdsdb'
p640
asg11
I1539357765
ssS'packet-isup_thin.c'
p641
(dp642
g3
(lp643
sg5
(lp644
S'proto_register_isup_thin'
p645
asg8
(lp646
S'proto_reg_handoff_isup_thin'
p647
asg11
I1539357827
ssS'packet-wap.c'
p648
(dp649
g3
(lp650
sg5
(lp651
sg8
(lp652
sg11
I1539357797
ssS'packet-user_encap.c'
p653
(dp654
g3
(lp655
sg5
(lp656
S'proto_register_user_encap'
p657
asg8
(lp658
S'proto_reg_handoff_user_encap'
p659
asg11
I1539357897
ssS'packet-rtnet.c'
p660
(dp661
g3
(lp662
sg5
(lp663
S'proto_register_rtmac'
p664
aS'proto_register_rtcfg'
p665
asg8
(lp666
S'proto_reg_handoff_rtmac'
p667
aS'proto_reg_handoff_rtcfg'
p668
asg11
I1539357797
ssS'packet-drda.c'
p669
(dp670
g3
(lp671
sg5
(lp672
S'proto_register_drda'
p673
asg8
(lp674
S'proto_reg_handoff_drda'
p675
asg11
I1539357853
ssS'packet-pppoe.c'
p676
(dp677
g3
(lp678
sg5
(lp679
S'proto_register_pppoed'
p680
aS'proto_register_pppoes'
p681
aS'proto_register_pppoe'
p682
asg8
(lp683
S'proto_reg_handoff_pppoed'
p684
aS'proto_reg_handoff_pppoes'
p685
asg11
I1539357800
ssS'packet-enip.c'
p686
(dp687
g3
(lp688
sg5
(lp689
S'proto_register_enip'
p690
asg8
(lp691
S'proto_reg_handoff_enip'
p692
asg11
I1539357881
ssS'packet-fractalgeneratorprotocol.c'
p693
(dp694
g3
(lp695
sg5
(lp696
S'proto_register_fractalgeneratorprotocol'
p697
asg8
(lp698
S'proto_reg_handoff_fractalgeneratorprotocol'
p699
asg11
I1539357899
ssS'packet-sigcomp.c'
p700
(dp701
g3
(lp702
sg5
(lp703
S'proto_register_sigcomp'
p704
asg8
(lp705
S'proto_reg_handoff_sigcomp'
p706
asg11
I1539357870
ssS'packet-diffserv-mpls-common.c'
p707
(dp708
g3
(lp709
sg5
(lp710
sg8
(lp711
sg11
I1539357653
ssS'packet-xtp.c'
p712
(dp713
g3
(lp714
sg5
(lp715
S'proto_register_xtp'
p716
asg8
(lp717
S'proto_reg_handoff_xtp'
p718
asg11
I1539357832
ssS'packet-http.c'
p719
(dp720
g3
(lp721
sg5
(lp722
S'proto_register_http'
p723
aS'proto_register_message_http'
p724
asg8
(lp725
S'proto_reg_handoff_http'
p726
aS'proto_reg_handoff_message_http'
p727
asg11
I1539357705
ssS'packet-pkixtsp.c'
p728
(dp729
g3
(lp730
sg5
(lp731
S'proto_register_pkixtsp'
p732
asg8
(lp733
S'proto_reg_handoff_pkixtsp'
p734
asg11
I1539357658
ssS'packet-h264.c'
p735
(dp736
g3
(lp737
sg5
(lp738
S'proto_register_h264'
p739
asg8
(lp740
S'proto_reg_handoff_h264'
p741
asg11
I1539357836
ssS'packet-dcerpc-pnp.c'
p742
(dp743
g3
(lp744
sg5
(lp745
S'proto_register_dcerpc_pnp'
p746
asg8
(lp747
S'proto_reg_handoff_dcerpc_pnp'
p748
asg11
I1539357681
ssS'packet-roofnet.c'
p749
(dp750
g3
(lp751
sg5
(lp752
S'proto_register_roofnet'
p753
asg8
(lp754
S'proto_reg_handoff_roofnet'
p755
asg11
I1539357711
ssS'packet-pdcp-lte.c'
p756
(dp757
g3
(lp758
sg5
(lp759
S'proto_register_pdcp'
p760
asg8
(lp761
S'proto_reg_handoff_pdcp_lte'
p762
asg11
I1539357708
ssS'packet-telkonet.c'
p763
(dp764
g3
(lp765
sg5
(lp766
S'proto_register_telkonet'
p767
asg8
(lp768
S'proto_reg_handoff_telkonet'
p769
asg11
I1539357875
ssS'packet-mpeg-pes.c'
p770
(dp771
g3
(lp772
sg5
(lp773
S'proto_register_mpeg_pes'
p774
asg8
(lp775
S'proto_reg_handoff_mpeg_pes'
p776
asg11
I1539357695
ssS'packet-rsvp.c'
p777
(dp778
g3
(lp779
sg5
(lp780
S'proto_register_rsvp'
p781
asg8
(lp782
S'proto_reg_handoff_rsvp'
p783
asg11
I1539357866
ssS'packet-rpc.c'
p784
(dp785
g3
(lp786
sg5
(lp787
S'proto_register_rpc'
p788
asg8
(lp789
S'proto_reg_handoff_rpc'
p790
asg11
I1539357935
ssS'packet-ess.c'
p791
(dp792
g3
(lp793
sg5
(lp794
S'proto_register_ess'
p795
asg8
(lp796
S'proto_reg_handoff_ess'
p797
asg11
I1539357759
ssS'packet-dcom-oxid.c'
p798
(dp799
g3
(lp800
sg5
(lp801
S'proto_register_oxid'
p802
asg8
(lp803
S'proto_reg_handoff_oxid'
p804
asg11
I1539357679
ssS'packet-ndmp.c'
p805
(dp806
g3
(lp807
sg5
(lp808
S'proto_register_ndmp'
p809
asg8
(lp810
S'proto_reg_handoff_ndmp'
p811
asg11
I1539357843
ssS'packet-dcom-remunkn.c'
p812
(dp813
g3
(lp814
sg5
(lp815
S'proto_register_remunk'
p816
asg8
(lp817
S'proto_reg_handoff_remunk'
p818
asg11
I1539357646
ssS'packet-sndcp-xid.c'
p819
(dp820
g3
(lp821
sg5
(lp822
S'proto_register_sndcp_xid'
p823
asg8
(lp824
S'proto_reg_handoff_sndcp_xid'
p825
asg11
I1539357914
ssS'packet-dcerpc-fileexp.c'
p826
(dp827
g3
(lp828
sg5
(lp829
S'proto_register_fileexp'
p830
asg8
(lp831
S'proto_reg_handoff_fileexp'
p832
asg11
I1539357795
ssS'packet-ipmi-session.c'
p833
(dp834
g3
(lp835
sg5
(lp836
S'proto_register_ipmi_session'
p837
asg8
(lp838
S'proto_reg_handoff_ipmi_session'
p839
asg11
I1539357835
ssS'packet-jabber.c'
p840
(dp841
g3
(lp842
sg5
(lp843
S'proto_register_jabber'
p844
asg8
(lp845
S'proto_reg_handoff_jabber'
p846
asg11
I1539357853
ssS'packet-eth.c'
p847
(dp848
g3
(lp849
sg5
(lp850
S'proto_register_eth'
p851
asg8
(lp852
S'proto_reg_handoff_eth'
p853
asg11
I1539357670
ssS'packet-afs.c'
p854
(dp855
g3
(lp856
sg5
(lp857
S'proto_register_afs'
p858
asg8
(lp859
sg11
I1539357776
ssS'packet-kerberos4.c'
p860
(dp861
g3
(lp862
sg5
(lp863
S'proto_register_krb4'
p864
asg8
(lp865
S'proto_reg_handoff_krb4'
p866
asg11
I1539357778
ssS'packet-teamspeak2.c'
p867
(dp868
g3
(lp869
sg5
(lp870
S'proto_register_ts2'
p871
asg8
(lp872
S'proto_reg_handoff_ts2'
p873
asg11
I1539357719
ssS'packet-btl2cap.c'
p874
(dp875
g3
(lp876
sg5
(lp877
S'proto_register_btl2cap'
p878
asg8
(lp879
S'proto_reg_handoff_btl2cap'
p880
asg11
I1539357672
ssS'packet-rdt.c'
p881
(dp882
g3
(lp883
sg5
(lp884
S'proto_register_rdt'
p885
asg8
(lp886
S'proto_reg_handoff_rdt'
p887
asg11
I1539357824
ssS'packet-m3ua.c'
p888
(dp889
g3
(lp890
sg5
(lp891
S'proto_register_m3ua'
p892
asg8
(lp893
S'proto_reg_handoff_m3ua'
p894
asg11
I1539357676
ssS'packet-mbtcp.c'
p895
(dp896
g3
(lp897
sg5
(lp898
S'proto_register_modbus'
p899
asg8
(lp900
S'proto_reg_handoff_mbtcp'
p901
asg11
I1539357691
ssS'packet-ssl-utils.c'
p902
(dp903
g3
(lp904
sg5
(lp905
sg8
(lp906
sg11
I1539357712
ssS'packet-ansi_tcap.c'
p907
(dp908
g3
(lp909
sg5
(lp910
S'proto_register_ansi_tcap'
p911
asg8
(lp912
S'proto_reg_handoff_ansi_tcap'
p913
asg11
I1539357852
ssS'packet-rx.c'
p914
(dp915
g3
(lp916
sg5
(lp917
S'proto_register_rx'
p918
asg8
(lp919
S'proto_reg_handoff_rx'
p920
asg11
I1539357697
ssS'packet-dcm.c'
p921
(dp922
g3
(lp923
sg5
(lp924
S'proto_register_dcm'
p925
asg8
(lp926
S'proto_reg_handoff_dcm'
p927
asg11
I1539357808
ssS'packet-dlsw.c'
p928
(dp929
g3
(lp930
sg5
(lp931
S'proto_register_dlsw'
p932
asg8
(lp933
S'proto_reg_handoff_dlsw'
p934
asg11
I1539357653
ssS'packet-ieee8023.c'
p935
(dp936
g3
(lp937
sg5
(lp938
sg8
(lp939
S'proto_reg_handoff_ieee802_3'
p940
asg11
I1539357822
ssS'packet-gnm.c'
p941
(dp942
g3
(lp943
sg5
(lp944
S'proto_register_gnm'
p945
asg8
(lp946
S'proto_reg_handoff_gnm'
p947
asg11
I1539357827
ssS'packet-mms.c'
p948
(dp949
g3
(lp950
sg5
(lp951
S'proto_register_mms'
p952
asg8
(lp953
S'proto_reg_handoff_mms'
p954
asg11
I1539357844
ssS'packet-miop.c'
p955
(dp956
g3
(lp957
sg5
(lp958
S'proto_register_miop'
p959
asg8
(lp960
S'proto_reg_handoff_miop'
p961
asg11
I1539357725
ssS'packet-enc.c'
p962
(dp963
g3
(lp964
sg5
(lp965
S'proto_register_enc'
p966
asg8
(lp967
S'proto_reg_handoff_enc'
p968
asg11
I1539357884
ssS'packet-cups.c'
p969
(dp970
g3
(lp971
sg5
(lp972
S'proto_register_cups'
p973
asg8
(lp974
S'proto_reg_handoff_cups'
p975
asg11
I1539357817
ssS'packet-nntp.c'
p976
(dp977
g3
(lp978
sg5
(lp979
S'proto_register_nntp'
p980
asg8
(lp981
S'proto_reg_handoff_nntp'
p982
asg11
I1539357650
ssS'packet-h248.c'
p983
(dp984
g3
(lp985
sg5
(lp986
S'proto_register_h248'
p987
asg8
(lp988
S'proto_reg_handoff_h248'
p989
asg11
I1539357742
ssS'packet-cdp.c'
p990
(dp991
g3
(lp992
sg5
(lp993
S'proto_register_cdp'
p994
asg8
(lp995
S'proto_reg_handoff_cdp'
p996
asg11
I1539357912
ssS'packet-dcerpc-rs_prop_acct.c'
p997
(dp998
g3
(lp999
sg5
(lp1000
S'proto_register_rs_prop_acct'
p1001
asg8
(lp1002
S'proto_reg_handoff_rs_prop_acct'
p1003
asg11
I1539357672
ssS'packet-ipars.c'
p1004
(dp1005
g3
(lp1006
sg5
(lp1007
S'proto_register_ipars'
p1008
asg8
(lp1009
sg11
I1539357733
ssS'packet-sscf-nni.c'
p1010
(dp1011
g3
(lp1012
sg5
(lp1013
S'proto_register_sscf'
p1014
asg8
(lp1015
S'proto_reg_handoff_sscf'
p1016
asg11
I1539357917
ssS'packet-mpeg1.c'
p1017
(dp1018
g3
(lp1019
sg5
(lp1020
S'proto_register_mpeg1'
p1021
asg8
(lp1022
S'proto_reg_handoff_mpeg1'
p1023
asg11
I1539357711
ssS'packet-arp.c'
p1024
(dp1025
g3
(lp1026
sg5
(lp1027
S'proto_register_arp'
p1028
asg8
(lp1029
S'proto_reg_handoff_arp'
p1030
asg11
I1539357863
ssS'packet-cgmp.c'
p1031
(dp1032
g3
(lp1033
sg5
(lp1034
S'proto_register_cgmp'
p1035
asg8
(lp1036
S'proto_reg_handoff_cgmp'
p1037
asg11
I1539357876
ssS'packet-newmail.c'
p1038
(dp1039
g3
(lp1040
sg5
(lp1041
S'proto_register_newmail'
p1042
asg8
(lp1043
S'proto_reg_handoff_newmail'
p1044
asg11
I1539357780
ssS'packet-disp.c'
p1045
(dp1046
g3
(lp1047
sg5
(lp1048
S'proto_register_disp'
p1049
asg8
(lp1050
S'proto_reg_handoff_disp'
p1051
asg11
I1539357945
ssS'packet-diameter.c'
p1052
(dp1053
g3
(lp1054
sg5
(lp1055
S'proto_register_diameter'
p1056
asg8
(lp1057
S'proto_reg_handoff_diameter'
p1058
asg11
I1539357682
ssS'packet-bpdu.c'
p1059
(dp1060
g3
(lp1061
sg5
(lp1062
S'proto_register_bpdu'
p1063
asg8
(lp1064
S'proto_reg_handoff_bpdu'
p1065
asg11
I1539357727
ssS'packet-smb.c'
p1066
(dp1067
g3
(lp1068
sg5
(lp1069
S'proto_register_smb'
p1070
asg8
(lp1071
S'proto_reg_handoff_smb'
p1072
asg11
I1539357978
ssS'packet-s4406.c'
p1073
(dp1074
g3
(lp1075
sg5
(lp1076
S'proto_register_s4406'
p1077
asg8
(lp1078
S'proto_reg_handoff_s4406'
p1079
asg11
I1539357809
ssS'packet-vj.c'
p1080
(dp1081
g3
(lp1082
sg5
(lp1083
S'proto_register_vj'
p1084
asg8
(lp1085
S'proto_reg_handoff_vj'
p1086
asg11
I1539357660
ssS'packet-zrtp.c'
p1087
(dp1088
g3
(lp1089
sg5
(lp1090
S'proto_register_zrtp'
p1091
asg8
(lp1092
S'proto_reg_handoff_zrtp'
p1093
asg11
I1539357743
ssS'packet-eigrp.c'
p1094
(dp1095
g3
(lp1096
sg5
(lp1097
S'proto_register_eigrp'
p1098
asg8
(lp1099
S'proto_reg_handoff_eigrp'
p1100
asg11
I1539357829
ssS'packet-goose.c'
p1101
(dp1102
g3
(lp1103
sg5
(lp1104
S'proto_register_goose'
p1105
asg8
(lp1106
S'proto_reg_handoff_goose'
p1107
asg11
I1539357657
ssS'packet-ehs.c'
p1108
(dp1109
g3
(lp1110
sg5
(lp1111
S'proto_register_ehs'
p1112
asg8
(lp1113
S'proto_reg_handoff_ehs'
p1114
asg11
I1539357701
ssS'packet-chdlc.c'
p1115
(dp1116
g3
(lp1117
sg5
(lp1118
S'proto_register_chdlc'
p1119
aS'proto_register_slarp'
p1120
asg8
(lp1121
S'proto_reg_handoff_chdlc'
p1122
aS'proto_reg_handoff_slarp'
p1123
asg11
I1539357748
ssS'packet-ccsds.c'
p1124
(dp1125
g3
(lp1126
sg5
(lp1127
S'proto_register_ccsds'
p1128
asg8
(lp1129
S'proto_reg_handoff_ccsds'
p1130
asg11
I1539357783
ssS'packet-sipfrag.c'
p1131
(dp1132
g3
(lp1133
sg5
(lp1134
S'proto_register_sipfrag'
p1135
asg8
(lp1136
S'proto_reg_handoff_sipfrag'
p1137
asg11
I1539357833
ssS'_VERSION'
p1138
S'$Id: make-dissector-reg.py 27578 2009-03-02 18:40:56Z gerald $'
p1139
sS'packet-dtls.c'
p1140
(dp1141
g3
(lp1142
sg5
(lp1143
S'proto_register_dtls'
p1144
asg8
(lp1145
S'proto_reg_handoff_dtls'
p1146
asg11
I1539357915
ssS'packet-ipsec-udp.c'
p1147
(dp1148
g3
(lp1149
sg5
(lp1150
S'proto_register_udpencap'
p1151
asg8
(lp1152
S'proto_reg_handoff_udpencap'
p1153
asg11
I1539357653
ssS'packet-tapa.c'
p1154
(dp1155
g3
(lp1156
sg5
(lp1157
S'proto_register_tapa'
p1158
asg8
(lp1159
S'proto_reg_handoff_tapa'
p1160
asg11
I1539357829
ssS'packet-ipdc.c'
p1161
(dp1162
g3
(lp1163
sg5
(lp1164
S'proto_register_ipdc'
p1165
asg8
(lp1166
S'proto_reg_handoff_ipdc'
p1167
asg11
I1539357749
ssS'packet-gmrp.c'
p1168
(dp1169
g3
(lp1170
sg5
(lp1171
S'proto_register_gmrp'
p1172
asg8
(lp1173
S'proto_reg_handoff_gmrp'
p1174
asg11
I1539357829
ssS'packet-dcerpc-tapi.c'
p1175
(dp1176
g3
(lp1177
sg5
(lp1178
S'proto_register_dcerpc_tapi'
p1179
asg8
(lp1180
S'proto_reg_handoff_dcerpc_tapi'
p1181
asg11
I1539357832
ssS'packet-qllc.c'
p1182
(dp1183
g3
(lp1184
sg5
(lp1185
S'proto_register_qllc'
p1186
asg8
(lp1187
S'proto_reg_handoff_qllc'
p1188
asg11
I1539357812
ssS'packet-force10-oui.c'
p1189
(dp1190
g3
(lp1191
sg5
(lp1192
S'proto_register_force10_oui'
p1193
asg8
(lp1194
sg11
I1539357737
ssS'packet-3g-a11.c'
p1195
(dp1196
g3
(lp1197
sg5
(lp1198
S'proto_register_a11'
p1199
asg8
(lp1200
S'proto_reg_handoff_a11'
p1201
asg11
I1539357788
ssS'packet-wbxml.c'
p1202
(dp1203
g3
(lp1204
sg5
(lp1205
S'proto_register_wbxml'
p1206
asg8
(lp1207
S'proto_reg_handoff_wbxml'
p1208
asg11
I1539358021
ssS'packet-bfd.c'
p1209
(dp1210
g3
(lp1211
sg5
(lp1212
S'proto_register_bfd'
p1213
asg8
(lp1214
S'proto_reg_handoff_bfd'
p1215
asg11
I1539357753
ssS'packet-artnet.c'
p1216
(dp1217
g3
(lp1218
sg5
(lp1219
S'proto_register_artnet'
p1220
asg8
(lp1221
S'proto_reg_handoff_artnet'
p1222
asg11
I1539357719
ssS'packet-retix-bpdu.c'
p1223
(dp1224
g3
(lp1225
sg5
(lp1226
S'proto_register_retix_bpdu'
p1227
asg8
(lp1228
S'proto_reg_handoff_retix_bpdu'
p1229
asg11
I1539357721
ssS'packet-acse.c'
p1230
(dp1231
g3
(lp1232
sg5
(lp1233
S'proto_register_acse'
p1234
asg8
(lp1235
S'proto_reg_handoff_acse'
p1236
asg11
I1539357928
ssS'packet-ipv6.c'
p1237
(dp1238
g3
(lp1239
sg5
(lp1240
S'proto_register_ipv6'
p1241
asg8
(lp1242
S'proto_reg_handoff_ipv6'
p1243
asg11
I1539357744
ssS'packet-q933.c'
p1244
(dp1245
g3
(lp1246
sg5
(lp1247
S'proto_register_q933'
p1248
asg8
(lp1249
S'proto_reg_handoff_q933'
p1250
asg11
I1539357896
ssS'packet-ftam.c'
p1251
(dp1252
g3
(lp1253
sg5
(lp1254
S'proto_register_ftam'
p1255
asg8
(lp1256
S'proto_reg_handoff_ftam'
p1257
asg11
I1539357781
ssS'packet-wlancertextn.c'
p1258
(dp1259
g3
(lp1260
sg5
(lp1261
S'proto_register_wlancertextn'
p1262
asg8
(lp1263
S'proto_reg_handoff_wlancertextn'
p1264
asg11
I1539357825
ssS'packet-pkcs12.c'
p1265
(dp1266
g3
(lp1267
sg5
(lp1268
S'proto_register_pkcs12'
p1269
asg8
(lp1270
S'proto_reg_handoff_pkcs12'
p1271
asg11
I1539357736
ssS'packet-hsrp.c'
p1272
(dp1273
g3
(lp1274
sg5
(lp1275
S'proto_register_hsrp'
p1276
asg8
(lp1277
S'proto_reg_handoff_hsrp'
p1278
asg11
I1539357816
ssS'packet-scsi-ssc.c'
p1279
(dp1280
g3
(lp1281
sg5
(lp1282
S'proto_register_scsi_ssc'
p1283
asg8
(lp1284
S'proto_reg_handoff_scsi_ssc'
p1285
asg11
I1539357698
ssS'packet-dcerpc-eventlog.c'
p1286
(dp1287
g3
(lp1288
sg5
(lp1289
S'proto_register_dcerpc_eventlog'
p1290
asg8
(lp1291
S'proto_reg_handoff_dcerpc_eventlog'
p1292
asg11
I1539357920
ssS'packet-dcerpc-lsa.c'
p1293
(dp1294
g3
(lp1295
sg5
(lp1296
S'proto_register_dcerpc_lsarpc'
p1297
asg8
(lp1298
S'proto_reg_handoff_dcerpc_lsarpc'
p1299
asg11
I1539358078
ssS'packet-slimp3.c'
p1300
(dp1301
g3
(lp1302
sg5
(lp1303
S'proto_register_slimp3'
p1304
asg8
(lp1305
S'proto_reg_handoff_slimp3'
p1306
asg11
I1539357732
ssS'packet-csm-encaps.c'
p1307
(dp1308
g3
(lp1309
sg5
(lp1310
S'proto_register_csm_encaps'
p1311
asg8
(lp1312
S'proto_reg_handoff_csm_encaps'
p1313
asg11
I1539357924
ssS'packet-dcerpc-ftserver.c'
p1314
(dp1315
g3
(lp1316
sg5
(lp1317
S'proto_register_ftserver'
p1318
asg8
(lp1319
S'proto_reg_handoff_ftserver'
p1320
asg11
I1539357649
ssS'packet-x2ap.c'
p1321
(dp1322
g3
(lp1323
sg5
(lp1324
S'proto_register_x2ap'
p1325
asg8
(lp1326
S'proto_reg_handoff_x2ap'
p1327
asg11
I1539357855
ssS'packet-ftp.c'
p1328
(dp1329
g3
(lp1330
sg5
(lp1331
S'proto_register_ftp'
p1332
asg8
(lp1333
S'proto_reg_handoff_ftp'
p1334
asg11
I1539357804
ssS'packet-pkinit.c'
p1335
(dp1336
g3
(lp1337
sg5
(lp1338
S'proto_register_pkinit'
p1339
asg8
(lp1340
S'proto_reg_handoff_pkinit'
p1341
asg11
I1539357923
ssS'packet-icep.c'
p1342
(dp1343
g3
(lp1344
sg5
(lp1345
S'proto_register_icep'
p1346
asg8
(lp1347
S'proto_reg_handoff_icep'
p1348
asg11
I1539357677
ssS'packet-pkcs1.c'
p1349
(dp1350
g3
(lp1351
sg5
(lp1352
S'proto_register_pkcs1'
p1353
asg8
(lp1354
S'proto_reg_handoff_pkcs1'
p1355
asg11
I1539357886
ssS'packet-sscop.c'
p1356
(dp1357
g3
(lp1358
sg5
(lp1359
S'proto_register_sscop'
p1360
asg8
(lp1361
S'proto_reg_handoff_sscop'
p1362
asg11
I1539357719
ssS'packet-mq-pcf.c'
p1363
(dp1364
g3
(lp1365
sg5
(lp1366
S'proto_register_mqpcf'
p1367
asg8
(lp1368
S'proto_reg_handoff_mqpcf'
p1369
asg11
I1539357715
ssS'packet-ziop.c'
p1370
(dp1371
g3
(lp1372
sg5
(lp1373
S'proto_register_ziop'
p1374
asg8
(lp1375
S'proto_reg_handoff_ziop'
p1376
asg11
I1539357888
ssS'packet-snaeth.c'
p1377
(dp1378
g3
(lp1379
sg5
(lp1380
S'proto_register_snaeth'
p1381
asg8
(lp1382
S'proto_reg_handoff_snaeth'
p1383
asg11
I1539357785
ssS'packet-wtls.c'
p1384
(dp1385
g3
(lp1386
sg5
(lp1387
S'proto_register_wtls'
p1388
asg8
(lp1389
S'proto_reg_handoff_wtls'
p1390
asg11
I1539357721
ssS'packet-bacapp.c'
p1391
(dp1392
g3
(lp1393
sg5
(lp1394
S'proto_register_bacapp'
p1395
asg8
(lp1396
S'proto_reg_handoff_bacapp'
p1397
asg11
I1539357758
ssS'packet-pim.c'
p1398
(dp1399
g3
(lp1400
sg5
(lp1401
S'proto_register_pim'
p1402
asg8
(lp1403
S'proto_reg_handoff_pim'
p1404
asg11
I1539357822
ssS'packet-hpext.c'
p1405
(dp1406
g3
(lp1407
sg5
(lp1408
S'proto_register_hpext'
p1409
asg8
(lp1410
S'proto_reg_handoff_hpext'
p1411
asg11
I1539357891
ssS'packet-icap.c'
p1412
(dp1413
g3
(lp1414
sg5
(lp1415
S'proto_register_icap'
p1416
asg8
(lp1417
S'proto_reg_handoff_icap'
p1418
asg11
I1539357654
ssS'packet-ipfc.c'
p1419
(dp1420
g3
(lp1421
sg5
(lp1422
S'proto_register_ipfc'
p1423
asg8
(lp1424
S'proto_reg_handoff_ipfc'
p1425
asg11
I1539357899
ssS'packet-fw1.c'
p1426
(dp1427
g3
(lp1428
sg5
(lp1429
S'proto_register_fw1'
p1430
asg8
(lp1431
sg11
I1539357797
ssS'packet-netflow.c'
p1432
(dp1433
g3
(lp1434
sg5
(lp1435
S'proto_register_netflow'
p1436
asg8
(lp1437
S'proto_reg_handoff_netflow'
p1438
asg11
I1539357740
ssS'packet-hclnfsd.c'
p1439
(dp1440
g3
(lp1441
sg5
(lp1442
S'proto_register_hclnfsd'
p1443
asg8
(lp1444
S'proto_reg_handoff_hclnfsd'
p1445
asg11
I1539357928
ssS'packet-itdm.c'
p1446
(dp1447
g3
(lp1448
sg5
(lp1449
S'proto_register_itdm'
p1450
asg8
(lp1451
S'proto_reg_handoff_itdm'
p1452
asg11
I1539357821
ssS'packet-windows-common.c'
p1453
(dp1454
g3
(lp1455
sg5
(lp1456
sg8
(lp1457
sg11
I1539357856
ssS'packet-vines.c'
p1458
(dp1459
g3
(lp1460
sg5
(lp1461
S'proto_register_vines_frp'
p1462
aS'proto_register_vines_llc'
p1463
aS'proto_register_vines_ip'
p1464
aS'proto_register_vines_echo'
p1465
aS'proto_register_vines_ipc'
p1466
aS'proto_register_vines_spp'
p1467
aS'proto_register_vines_arp'
p1468
aS'proto_register_vines_rtp'
p1469
aS'proto_register_vines_icp'
p1470
asg8
(lp1471
S'proto_reg_handoff_vines_frp'
p1472
aS'proto_reg_handoff_vines_llc'
p1473
aS'proto_reg_handoff_vines_ip'
p1474
aS'proto_reg_handoff_vines_echo'
p1475
aS'proto_reg_handoff_vines_ipc'
p1476
aS'proto_reg_handoff_vines_spp'
p1477
aS'proto_reg_handoff_vines_arp'
p1478
aS'proto_reg_handoff_vines_rtp'
p1479
aS'proto_reg_handoff_vines_icp'
p1480
asg11
I1539357760
ssS'packet-dcerpc-dfs.c'
p1481
(dp1482
g3
(lp1483
sg5
(lp1484
S'proto_register_dcerpc_netdfs'
p1485
asg8
(lp1486
S'proto_reg_handoff_dcerpc_netdfs'
p1487
asg11
I1539357779
ssS'packet-cmip.c'
p1488
(dp1489
g3
(lp1490
sg5
(lp1491
S'proto_register_cmip'
p1492
asg8
(lp1493
S'proto_reg_handoff_cmip'
p1494
asg11
I1539357893
ssS'packet-rmt-fec.c'
p1495
(dp1496
g3
(lp1497
sg5
(lp1498
sg8
(lp1499
sg11
I1539357684
ssS'packet-btsdp.c'
p1500
(dp1501
g3
(lp1502
sg5
(lp1503
S'proto_register_btsdp'
p1504
asg8
(lp1505
S'proto_reg_handoff_btsdp'
p1506
asg11
I1539357893
ssS'packet-bthci_sco.c'
p1507
(dp1508
g3
(lp1509
sg5
(lp1510
S'proto_register_btsco'
p1511
asg8
(lp1512
S'proto_reg_handoff_btsco'
p1513
asg11
I1539357792
ssS'packet-clip.c'
p1514
(dp1515
g3
(lp1516
sg5
(lp1517
S'proto_register_clip'
p1518
asg8
(lp1519
S'proto_reg_handoff_clip'
p1520
asg11
I1539357656
ssS'packet-ranap.c'
p1521
(dp1522
g3
(lp1523
sg5
(lp1524
S'proto_register_ranap'
p1525
asg8
(lp1526
S'proto_reg_handoff_ranap'
p1527
asg11
I1539358048
ssS'packet-rsync.c'
p1528
(dp1529
g3
(lp1530
sg5
(lp1531
S'proto_register_rsync'
p1532
asg8
(lp1533
S'proto_reg_handoff_rsync'
p1534
asg11
I1539357866
ssS'packet-gsm_a_bssmap.c'
p1535
(dp1536
g3
(lp1537
sg5
(lp1538
S'proto_register_gsm_a_bssmap'
p1539
asg8
(lp1540
S'proto_reg_handoff_gsm_a_bssmap'
p1541
asg11
I1539357742
ssS'packet-acp133.c'
p1542
(dp1543
g3
(lp1544
sg5
(lp1545
S'proto_register_acp133'
p1546
asg8
(lp1547
S'proto_reg_handoff_acp133'
p1548
asg11
I1539357835
ssS'packet-h282.c'
p1549
(dp1550
g3
(lp1551
sg5
(lp1552
S'proto_register_h282'
p1553
asg8
(lp1554
S'proto_reg_handoff_h282'
p1555
asg11
I1539357761
ssS'packet-dcerpc-rs_pwd_mgmt.c'
p1556
(dp1557
g3
(lp1558
sg5
(lp1559
S'proto_register_rs_pwd_mgmt'
p1560
asg8
(lp1561
S'proto_reg_handoff_rs_pwd_mgmt'
p1562
asg11
I1539357681
ssS'packet-rtp.c'
p1563
(dp1564
g3
(lp1565
sg5
(lp1566
S'proto_register_pkt_ccc'
p1567
aS'proto_register_rtp'
p1568
asg8
(lp1569
S'proto_reg_handoff_pkt_ccc'
p1570
aS'proto_reg_handoff_rtp'
p1571
asg11
I1539357891
ssS'packet-nfs.c'
p1572
(dp1573
g3
(lp1574
sg5
(lp1575
S'proto_register_nfs'
p1576
asg8
(lp1577
S'proto_reg_handoff_nfs'
p1578
asg11
I1539357934
ssS'packet-agentx.c'
p1579
(dp1580
g3
(lp1581
sg5
(lp1582
S'proto_register_agentx'
p1583
asg8
(lp1584
S'proto_reg_handoff_agentx'
p1585
asg11
I1539357745
ssS'packet-ositp.c'
p1586
(dp1587
g3
(lp1588
sg5
(lp1589
S'proto_register_cotp'
p1590
aS'proto_register_cltp'
p1591
asg8
(lp1592
S'proto_reg_handoff_cotp'
p1593
asg11
I1539357845
ssS'packet-bthci_evt.c'
p1594
(dp1595
g3
(lp1596
sg5
(lp1597
S'proto_register_bthci_evt'
p1598
asg8
(lp1599
S'proto_reg_handoff_bthci_evt'
p1600
asg11
I1539357832
ssS'packet-dcerpc-bossvr.c'
p1601
(dp1602
g3
(lp1603
sg5
(lp1604
S'proto_register_bossvr'
p1605
asg8
(lp1606
S'proto_reg_handoff_bossvr'
p1607
asg11
I1539357904
ssS'packet-pktc.c'
p1608
(dp1609
g3
(lp1610
sg5
(lp1611
S'proto_register_pktc'
p1612
aS'proto_register_pktc_mtafqdn'
p1613
asg8
(lp1614
S'proto_reg_handoff_pktc'
p1615
aS'proto_reg_handoff_pktc_mtafqdn'
p1616
asg11
I1539357699
ssS'packet-cpfi.c'
p1617
(dp1618
g3
(lp1619
sg5
(lp1620
S'proto_register_cpfi'
p1621
asg8
(lp1622
S'proto_reg_handoff_cpfi'
p1623
asg11
I1539357836
ssS'packet-smtp.c'
p1624
(dp1625
g3
(lp1626
sg5
(lp1627
S'proto_register_smtp'
p1628
asg8
(lp1629
S'proto_reg_handoff_smtp'
p1630
asg11
I1539357834
ssS'packet-nasdaq-itch.c'
p1631
(dp1632
g3
(lp1633
sg5
(lp1634
S'proto_register_nasdaq_itch'
p1635
asg8
(lp1636
S'proto_reg_handoff_nasdaq_itch'
p1637
asg11
I1539357659
ssS'packet-epmd.c'
p1638
(dp1639
g3
(lp1640
sg5
(lp1641
S'proto_register_epmd'
p1642
asg8
(lp1643
S'proto_reg_handoff_epmd'
p1644
asg11
I1539357873
ssS'packet-tcp.c'
p1645
(dp1646
g3
(lp1647
sg5
(lp1648
S'proto_register_tcp'
p1649
asg8
(lp1650
S'proto_reg_handoff_tcp'
p1651
asg11
I1539357841
ssS'packet-v120.c'
p1652
(dp1653
g3
(lp1654
sg5
(lp1655
S'proto_register_v120'
p1656
asg8
(lp1657
S'proto_reg_handoff_v120'
p1658
asg11
I1539357727
ssS'packet-rmi.c'
p1659
(dp1660
g3
(lp1661
sg5
(lp1662
S'proto_register_rmi'
p1663
asg8
(lp1664
S'proto_reg_handoff_rmi'
p1665
asg11
I1539357784
ssS'packet-aim-generic.c'
p1666
(dp1667
g3
(lp1668
sg5
(lp1669
S'proto_register_aim_generic'
p1670
asg8
(lp1671
S'proto_reg_handoff_aim_generic'
p1672
asg11
I1539357765
ssS'packet-dcerpc-mgmt.c'
p1673
(dp1674
g3
(lp1675
sg5
(lp1676
S'proto_register_mgmt'
p1677
asg8
(lp1678
S'proto_reg_handoff_mgmt'
p1679
asg11
I1539357647
ssS'packet-qsig.c'
p1680
(dp1681
g3
(lp1682
sg5
(lp1683
S'proto_register_qsig'
p1684
asg8
(lp1685
S'proto_reg_handoff_qsig'
p1686
asg11
I1539358037
ssS'packet-idp.c'
p1687
(dp1688
g3
(lp1689
sg5
(lp1690
S'proto_register_idp'
p1691
asg8
(lp1692
S'proto_reg_handoff_idp'
p1693
asg11
I1539357699
ssS'packet-mip6.c'
p1694
(dp1695
g3
(lp1696
sg5
(lp1697
S'proto_register_mip6'
p1698
asg8
(lp1699
S'proto_reg_handoff_mip6'
p1700
asg11
I1539357693
ssS'packet-x25.c'
p1701
(dp1702
g3
(lp1703
sg5
(lp1704
S'proto_register_x25'
p1705
asg8
(lp1706
S'proto_reg_handoff_x25'
p1707
asg11
I1539357831
ssS'packet-dcom-sysact.c'
p1708
(dp1709
g3
(lp1710
sg5
(lp1711
S'proto_register_ISystemActivator'
p1712
asg8
(lp1713
S'proto_reg_handoff_ISystemActivator'
p1714
asg11
I1539357739
ssS'packet-ucp.c'
p1715
(dp1716
g3
(lp1717
sg5
(lp1718
S'proto_register_ucp'
p1719
asg8
(lp1720
S'proto_reg_handoff_ucp'
p1721
asg11
I1539357796
ssS'packet-t38.c'
p1722
(dp1723
g3
(lp1724
sg5
(lp1725
S'proto_register_t38'
p1726
asg8
(lp1727
S'proto_reg_handoff_t38'
p1728
asg11
I1539357877
ssS'packet-radius.c'
p1729
(dp1730
g3
(lp1731
sg5
(lp1732
S'proto_register_radius'
p1733
asg8
(lp1734
S'proto_reg_handoff_radius'
p1735
asg11
I1539357699
ssS'packet-sccp.c'
p1736
(dp1737
g3
(lp1738
sg5
(lp1739
S'proto_register_sccp'
p1740
asg8
(lp1741
S'proto_reg_handoff_sccp'
p1742
asg11
I1539357802
ssS'packet-btrfcomm.c'
p1743
(dp1744
g3
(lp1745
sg5
(lp1746
S'proto_register_btrfcomm'
p1747
asg8
(lp1748
S'proto_reg_handoff_btrfcomm'
p1749
asg11
I1539357808
ssS'packet-paltalk.c'
p1750
(dp1751
g3
(lp1752
sg5
(lp1753
S'proto_register_paltalk'
p1754
asg8
(lp1755
S'proto_reg_handoff_paltalk'
p1756
asg11
I1539357766
ssS'packet-mpls.c'
p1757
(dp1758
g3
(lp1759
sg5
(lp1760
S'proto_register_mpls'
p1761
asg8
(lp1762
S'proto_reg_handoff_mpls'
p1763
asg11
I1539357931
ssS'packet-rpcap.c'
p1764
(dp1765
g3
(lp1766
sg5
(lp1767
S'proto_register_rpcap'
p1768
asg8
(lp1769
S'proto_reg_handoff_rpcap'
p1770
asg11
I1539357709
ssS'packet-radiotap.c'
p1771
(dp1772
g3
(lp1773
sg5
(lp1774
S'proto_register_radiotap'
p1775
asg8
(lp1776
S'proto_reg_handoff_radiotap'
p1777
asg11
I1539357726
ssS'packet-smb-browse.c'
p1778
(dp1779
g3
(lp1780
sg5
(lp1781
S'proto_register_smb_browse'
p1782
asg8
(lp1783
sg11
I1539357671
ssS'packet-kdp.c'
p1784
(dp1785
g3
(lp1786
sg5
(lp1787
S'proto_register_kdp'
p1788
asg8
(lp1789
S'proto_reg_handoff_kdp'
p1790
asg11
I1539357646
ssS'packet-camel.c'
p1791
(dp1792
g3
(lp1793
sg5
(lp1794
S'proto_register_camel'
p1795
asg8
(lp1796
S'proto_reg_handoff_camel'
p1797
asg11
I1539357933
ssS'packet-pw-cesopsn.c'
p1798
(dp1799
g3
(lp1800
sg5
(lp1801
S'proto_register_pw_cesopsn'
p1802
asg8
(lp1803
S'proto_reg_handoff_pw_cesopsn'
p1804
asg11
I1539357666
ssS'packet-ieee80211.c'
p1805
(dp1806
g3
(lp1807
sg5
(lp1808
S'proto_register_ieee80211'
p1809
asg8
(lp1810
S'proto_reg_handoff_ieee80211'
p1811
asg11
I1539357943
ssS'packet-p_mul.c'
p1812
(dp1813
g3
(lp1814
sg5
(lp1815
S'proto_register_p_mul'
p1816
asg8
(lp1817
S'proto_reg_handoff_p_mul'
p1818
asg11
I1539357792
ssS'packet-zbee-zdp.c'
p1819
(dp1820
g3
(lp1821
sg5
(lp1822
S'proto_register_zbee_zdp'
p1823
asg8
(lp1824
S'proto_reg_handoff_zbee_zdp'
p1825
asg11
I1539357859
ssS'packet-skinny.c'
p1826
(dp1827
g3
(lp1828
sg5
(lp1829
S'proto_register_skinny'
p1830
asg8
(lp1831
S'proto_reg_handoff_skinny'
p1832
asg11
I1539357936
ssS'packet-hci_h1.c'
p1833
(dp1834
g3
(lp1835
sg5
(lp1836
S'proto_register_hci_h1'
p1837
asg8
(lp1838
S'proto_reg_handoff_hci_h1'
p1839
asg11
I1539357764
ssS'packet-turbocell.c'
p1840
(dp1841
g3
(lp1842
sg5
(lp1843
S'proto_register_turbocell'
p1844
asg8
(lp1845
S'proto_reg_handoff_turbocell'
p1846
asg11
I1539357881
ssS'packet-iwarp-ddp-rdmap.c'
p1847
(dp1848
g3
(lp1849
sg5
(lp1850
S'proto_register_iwarp_ddp_rdmap'
p1851
asg8
(lp1852
S'proto_reg_handoff_iwarp_ddp_rdmap'
p1853
asg11
I1539357746
ssS'packet-wow.c'
p1854
(dp1855
g3
(lp1856
sg5
(lp1857
S'proto_register_wow'
p1858
asg8
(lp1859
S'proto_reg_handoff_wow'
p1860
asg11
I1539357804
ssS'packet-dcerpc-ubikdisk.c'
p1861
(dp1862
g3
(lp1863
sg5
(lp1864
S'proto_register_ubikdisk'
p1865
asg8
(lp1866
S'proto_reg_handoff_ubikdisk'
p1867
asg11
I1539357730
ssS'packet-gtp.c'
p1868
(dp1869
g3
(lp1870
sg5
(lp1871
S'proto_register_gtp'
p1872
asg8
(lp1873
S'proto_reg_handoff_gtp'
p1874
asg11
I1539357875
ssS'packet-dcerpc-srvsvc.c'
p1875
(dp1876
g3
(lp1877
sg5
(lp1878
S'proto_register_dcerpc_srvsvc'
p1879
asg8
(lp1880
S'proto_reg_handoff_dcerpc_srvsvc'
p1881
asg11
I1539358058
ssS'packet-gsm_map.c'
p1882
(dp1883
g3
(lp1884
sg5
(lp1885
S'proto_register_gsm_map'
p1886
asg8
(lp1887
S'proto_reg_handoff_gsm_map'
p1888
asg11
I1539358096
ssS'packet-edonkey.c'
p1889
(dp1890
g3
(lp1891
sg5
(lp1892
S'proto_register_edonkey'
p1893
asg8
(lp1894
S'proto_reg_handoff_edonkey'
p1895
asg11
I1539357777
ssS'packet-dcerpc-rs_acct.c'
p1896
(dp1897
g3
(lp1898
sg5
(lp1899
S'proto_register_rs_acct'
p1900
asg8
(lp1901
S'proto_reg_handoff_rs_acct'
p1902
asg11
I1539357705
ssS'packet-rfc2190.c'
p1903
(dp1904
g3
(lp1905
sg5
(lp1906
S'proto_register_rfc2190'
p1907
asg8
(lp1908
S'proto_reg_handoff_rfc2190'
p1909
asg11
I1539357680
ssS'packet-erf.c'
p1910
(dp1911
g3
(lp1912
sg5
(lp1913
S'proto_register_erf'
p1914
asg8
(lp1915
S'proto_reg_handoff_erf'
p1916
asg11
I1539357741
ssS'packet-quake2.c'
p1917
(dp1918
g3
(lp1919
sg5
(lp1920
S'proto_register_quake2'
p1921
asg8
(lp1922
S'proto_reg_handoff_quake2'
p1923
asg11
I1539357696
ssS'packet-epl.c'
p1924
(dp1925
g3
(lp1926
sg5
(lp1927
S'proto_register_epl'
p1928
asg8
(lp1929
S'proto_reg_handoff_epl'
p1930
asg11
I1539357669
ssS'packet-text-media.c'
p1931
(dp1932
g3
(lp1933
sg5
(lp1934
S'proto_register_text_lines'
p1935
asg8
(lp1936
S'proto_reg_handoff_text_lines'
p1937
asg11
I1539357765
ssS'packet-nas_eps.c'
p1938
(dp1939
g3
(lp1940
sg5
(lp1941
S'proto_register_nas_eps'
p1942
asg8
(lp1943
S'proto_reg_handoff_nas_eps'
p1944
asg11
I1539357909
ssS'packet-x420.c'
p1945
(dp1946
g3
(lp1947
sg5
(lp1948
S'proto_register_x420'
p1949
asg8
(lp1950
S'proto_reg_handoff_x420'
p1951
asg11
I1539357950
ssS'packet-gift.c'
p1952
(dp1953
g3
(lp1954
sg5
(lp1955
S'proto_register_gift'
p1956
asg8
(lp1957
S'proto_reg_handoff_gift'
p1958
asg11
I1539357747
ssS'packet-armagetronad.c'
p1959
(dp1960
g3
(lp1961
sg5
(lp1962
S'proto_register_armagetronad'
p1963
asg8
(lp1964
S'proto_reg_handoff_armagetronad'
p1965
asg11
I1539357780
ssS'packet-dcerpc-secidmap.c'
p1966
(dp1967
g3
(lp1968
sg5
(lp1969
S'proto_register_secidmap'
p1970
asg8
(lp1971
S'proto_reg_handoff_secidmap'
p1972
asg11
I1539357730
ssS'packet-aim.c'
p1973
(dp1974
g3
(lp1975
sg5
(lp1976
S'proto_register_aim'
p1977
asg8
(lp1978
S'proto_reg_handoff_aim'
p1979
asg11
I1539357719
ssS'packet-fcsp.c'
p1980
(dp1981
g3
(lp1982
sg5
(lp1983
S'proto_register_fcsp'
p1984
asg8
(lp1985
S'proto_reg_handoff_fcsp'
p1986
asg11
I1539357678
ssS'packet-cisco-erspan.c'
p1987
(dp1988
g3
(lp1989
sg5
(lp1990
S'proto_register_erspan'
p1991
asg8
(lp1992
S'proto_reg_handoff_erspan'
p1993
asg11
I1539357875
ssS'packet-q2931.c'
p1994
(dp1995
g3
(lp1996
sg5
(lp1997
S'proto_register_q2931'
p1998
asg8
(lp1999
sg11
I1539357745
ssS'packet-wol.c'
p2000
(dp2001
g3
(lp2002
sg5
(lp2003
S'proto_register_wol'
p2004
asg8
(lp2005
S'proto_reg_handoff_wol'
p2006
asg11
I1539357764
ssS'packet-catapult-dct2000.c'
p2007
(dp2008
g3
(lp2009
sg5
(lp2010
S'proto_register_catapult_dct2000'
p2011
asg8
(lp2012
S'proto_reg_handoff_catapult_dct2000'
p2013
asg11
I1539357854
ssS'packet-dccp.c'
p2014
(dp2015
g3
(lp2016
sg5
(lp2017
S'proto_register_dccp'
p2018
asg8
(lp2019
S'proto_reg_handoff_dccp'
p2020
asg11
I1539357709
ssS'packet-stun.c'
p2021
(dp2022
g3
(lp2023
sg5
(lp2024
S'proto_register_stun'
p2025
asg8
(lp2026
S'proto_reg_handoff_stun'
p2027
asg11
I1539357753
ssS'packet-pgm.c'
p2028
(dp2029
g3
(lp2030
sg5
(lp2031
S'proto_register_pgm'
p2032
asg8
(lp2033
S'proto_reg_handoff_pgm'
p2034
asg11
I1539357791
ssS'packet-isakmp.c'
p2035
(dp2036
g3
(lp2037
sg5
(lp2038
S'proto_register_isakmp'
p2039
asg8
(lp2040
S'proto_reg_handoff_isakmp'
p2041
asg11
I1539357792
ssS'packet-ncp-nmas.c'
p2042
(dp2043
g3
(lp2044
sg5
(lp2045
S'proto_register_nmas'
p2046
asg8
(lp2047
sg11
I1539357757
ssS'packet-sua.c'
p2048
(dp2049
g3
(lp2050
sg5
(lp2051
S'proto_register_sua'
p2052
asg8
(lp2053
S'proto_reg_handoff_sua'
p2054
asg11
I1539357715
ssS'packet-gsm_a_dtap.c'
p2055
(dp2056
g3
(lp2057
sg5
(lp2058
S'proto_register_gsm_a_dtap'
p2059
asg8
(lp2060
S'proto_reg_handoff_gsm_a_dtap'
p2061
asg11
I1539357937
ssS'packet-clearcase.c'
p2062
(dp2063
g3
(lp2064
sg5
(lp2065
S'proto_register_clearcase'
p2066
asg8
(lp2067
S'proto_reg_handoff_clearcase'
p2068
asg11
I1539357860
ssS'packet-wassp.c'
p2069
(dp2070
g3
(lp2071
sg5
(lp2072
S'proto_register_wassp'
p2073
asg8
(lp2074
S'proto_reg_handoff_wassp'
p2075
asg11
I1539357917
ssS'packet-fcfcs.c'
p2076
(dp2077
g3
(lp2078
sg5
(lp2079
S'proto_register_fcfcs'
p2080
asg8
(lp2081
S'proto_reg_handoff_fcfcs'
p2082
asg11
I1539357739
ssS'packet-netdump.c'
p2083
(dp2084
g3
(lp2085
sg5
(lp2086
S'proto_register_netdump'
p2087
asg8
(lp2088
S'proto_reg_handoff_netdump'
p2089
asg11
I1539357665
ssS'packet-iec104.c'
p2090
(dp2091
g3
(lp2092
sg5
(lp2093
S'proto_register_iec104apci'
p2094
aS'proto_register_iec104asdu'
p2095
asg8
(lp2096
S'proto_reg_handoff_iec104'
p2097
asg11
I1539357852
ssS'packet-dcerpc-mapi.c'
p2098
(dp2099
g3
(lp2100
sg5
(lp2101
S'proto_register_dcerpc_mapi'
p2102
asg8
(lp2103
S'proto_reg_handoff_dcerpc_mapi'
p2104
asg11
I1539357804
ssS'packet-pkix1explicit.c'
p2105
(dp2106
g3
(lp2107
sg5
(lp2108
S'proto_register_pkix1explicit'
p2109
asg8
(lp2110
S'proto_reg_handoff_pkix1explicit'
p2111
asg11
I1539357741
ssS'packet-mpeg-audio.c'
p2112
(dp2113
g3
(lp2114
sg5
(lp2115
S'proto_register_mpeg_audio'
p2116
asg8
(lp2117
S'proto_reg_handoff_mpeg_audio'
p2118
asg11
I1539357677
ssS'packet-ppi.c'
p2119
(dp2120
g3
(lp2121
sg5
(lp2122
S'proto_register_ppi'
p2123
asg8
(lp2124
S'proto_reg_handoff_ppi'
p2125
asg11
I1539357814
ssS'packet-gsm_a_rp.c'
p2126
(dp2127
g3
(lp2128
sg5
(lp2129
S'proto_register_gsm_a_rp'
p2130
asg8
(lp2131
S'proto_reg_handoff_gsm_a_rp'
p2132
asg11
I1539357664
ssS'packet-rtsp.c'
p2133
(dp2134
g3
(lp2135
sg5
(lp2136
S'proto_register_rtsp'
p2137
asg8
(lp2138
S'proto_reg_handoff_rtsp'
p2139
asg11
I1539357664
ssS'packet-nsip.c'
p2140
(dp2141
g3
(lp2142
sg5
(lp2143
S'proto_register_nsip'
p2144
asg8
(lp2145
S'proto_reg_handoff_nsip'
p2146
asg11
I1539357704
ssS'packet-q931.c'
p2147
(dp2148
g3
(lp2149
sg5
(lp2150
S'proto_register_q931'
p2151
asg8
(lp2152
S'proto_reg_handoff_q931'
p2153
asg11
I1539357785
ssS'packet-syslog.c'
p2154
(dp2155
g3
(lp2156
sg5
(lp2157
S'proto_register_syslog'
p2158
asg8
(lp2159
S'proto_reg_handoff_syslog'
p2160
asg11
I1539357782
ssS'packet-teredo.c'
p2161
(dp2162
g3
(lp2163
sg5
(lp2164
S'proto_register_teredo'
p2165
asg8
(lp2166
S'proto_reg_handoff_teredo'
p2167
asg11
I1539357653
ssS'packet-gsm_a_rr.c'
p2168
(dp2169
g3
(lp2170
sg5
(lp2171
S'proto_register_gsm_a_rr'
p2172
asg8
(lp2173
S'proto_reg_handoff_gsm_a_rr'
p2174
asg11
I1539358028
ssS'packet-smb-logon.c'
p2175
(dp2176
g3
(lp2177
sg5
(lp2178
S'proto_register_smb_logon'
p2179
asg8
(lp2180
sg11
I1539357686
ssS'packet-dcerpc-icl_rpc.c'
p2181
(dp2182
g3
(lp2183
sg5
(lp2184
S'proto_register_icl_rpc'
p2185
asg8
(lp2186
S'proto_reg_handoff_icl_rpc'
p2187
asg11
I1539357751
ssS'packet-mount.c'
p2188
(dp2189
g3
(lp2190
sg5
(lp2191
S'proto_register_mount'
p2192
asg8
(lp2193
S'proto_reg_handoff_mount'
p2194
asg11
I1539357831
ssS'packet-dtpt.c'
p2195
(dp2196
g3
(lp2197
sg5
(lp2198
S'proto_register_dtpt'
p2199
asg8
(lp2200
S'proto_reg_handoff_dtpt'
p2201
asg11
I1539357762
ssS'packet-ff.c'
p2202
(dp2203
g3
(lp2204
sg5
(lp2205
S'proto_register_ff'
p2206
asg8
(lp2207
S'proto_reg_handoff_ff'
p2208
asg11
I1539358045
ssS'packet-lge_monitor.c'
p2209
(dp2210
g3
(lp2211
sg5
(lp2212
S'proto_register_lge_monitor'
p2213
asg8
(lp2214
S'proto_reg_handoff_lge_monitor'
p2215
asg11
I1539357664
ssS'packet-isl.c'
p2216
(dp2217
g3
(lp2218
sg5
(lp2219
S'proto_register_isl'
p2220
asg8
(lp2221
S'proto_reg_handoff_isl'
p2222
asg11
I1539357652
ssS'packet-redbackli.c'
p2223
(dp2224
g3
(lp2225
sg5
(lp2226
S'proto_register_redbackli'
p2227
asg8
(lp2228
S'proto_reg_handoff_redbackli'
p2229
asg11
I1539357924
ssS'packet-stat.c'
p2230
(dp2231
g3
(lp2232
sg5
(lp2233
S'proto_register_stat'
p2234
asg8
(lp2235
S'proto_reg_handoff_stat'
p2236
asg11
I1539357652
ssS'packet-dcerpc-butc.c'
p2237
(dp2238
g3
(lp2239
sg5
(lp2240
S'proto_register_butc'
p2241
asg8
(lp2242
S'proto_reg_handoff_butc'
p2243
asg11
I1539357774
ssS'packet-cms.c'
p2244
(dp2245
g3
(lp2246
sg5
(lp2247
S'proto_register_cms'
p2248
asg8
(lp2249
S'proto_reg_handoff_cms'
p2250
asg11
I1539357837
ssS'packet-cisco-wids.c'
p2251
(dp2252
g3
(lp2253
sg5
(lp2254
S'proto_register_cwids'
p2255
asg8
(lp2256
S'proto_reg_handoff_cwids'
p2257
asg11
I1539357804
ssS'packet-h248_annex_e.c'
p2258
(dp2259
g3
(lp2260
sg5
(lp2261
S'proto_register_h248_annex_e'
p2262
asg8
(lp2263
sg11
I1539357780
ssS'packet-epl_v1.c'
p2264
(dp2265
g3
(lp2266
sg5
(lp2267
S'proto_register_epl_v1'
p2268
asg8
(lp2269
S'proto_reg_handoff_epl_v1'
p2270
asg11
I1539357649
ssS'packet-kerberos.c'
p2271
(dp2272
g3
(lp2273
sg5
(lp2274
S'proto_register_kerberos'
p2275
asg8
(lp2276
S'proto_reg_handoff_kerberos'
p2277
asg11
I1539357793
ssS'packet-fcfzs.c'
p2278
(dp2279
g3
(lp2280
sg5
(lp2281
S'proto_register_fcfzs'
p2282
asg8
(lp2283
S'proto_reg_handoff_fcfzs'
p2284
asg11
I1539357723
ssS'packet-aim-signon.c'
p2285
(dp2286
g3
(lp2287
sg5
(lp2288
S'proto_register_aim_signon'
p2289
asg8
(lp2290
S'proto_reg_handoff_aim_signon'
p2291
asg11
I1539357858
ssS'packet-rtps.c'
p2292
(dp2293
g3
(lp2294
sg5
(lp2295
S'proto_register_rtps'
p2296
asg8
(lp2297
S'proto_reg_handoff_rtps'
p2298
asg11
I1539357803
ssS'packet-imf.c'
p2299
(dp2300
g3
(lp2301
sg5
(lp2302
S'proto_register_imf'
p2303
asg8
(lp2304
S'proto_reg_handoff_imf'
p2305
asg11
I1539357742
ssS'packet-ldp.c'
p2306
(dp2307
g3
(lp2308
sg5
(lp2309
S'proto_register_ldp'
p2310
asg8
(lp2311
S'proto_reg_handoff_ldp'
p2312
asg11
I1539357864
ssS'packet-bssgp.c'
p2313
(dp2314
g3
(lp2315
sg5
(lp2316
S'proto_register_bssgp'
p2317
asg8
(lp2318
S'proto_reg_handoff_bssgp'
p2319
asg11
I1539357923
ssS'packet-lapdm.c'
p2320
(dp2321
g3
(lp2322
sg5
(lp2323
S'proto_register_lapdm'
p2324
asg8
(lp2325
S'proto_reg_handoff_lapdm'
p2326
asg11
I1539357733
ssS'packet-gprs-llc.c'
p2327
(dp2328
g3
(lp2329
sg5
(lp2330
S'proto_register_llcgprs'
p2331
asg8
(lp2332
S'proto_reg_handoff_llcgprs'
p2333
asg11
I1539357698
ssS'packet-gsm_bsslap.c'
p2334
(dp2335
g3
(lp2336
sg5
(lp2337
S'proto_register_gsm_bsslap'
p2338
asg8
(lp2339
S'proto_reg_handoff_gsm_bsslap'
p2340
asg11
I1539357684
ssS'packet-smb-common.c'
p2341
(dp2342
g3
(lp2343
sg5
(lp2344
sg8
(lp2345
sg11
I1539357869
ssS'packet-dhcp-failover.c'
p2346
(dp2347
g3
(lp2348
sg5
(lp2349
S'proto_register_dhcpfo'
p2350
asg8
(lp2351
S'proto_reg_handoff_dhcpfo'
p2352
asg11
I1539357694
ssS'packet-dap.c'
p2353
(dp2354
g3
(lp2355
sg5
(lp2356
S'proto_register_dap'
p2357
asg8
(lp2358
S'proto_reg_handoff_dap'
p2359
asg11
I1539357750
ssS'packet-pkixqualified.c'
p2360
(dp2361
g3
(lp2362
sg5
(lp2363
S'proto_register_pkixqualified'
p2364
asg8
(lp2365
S'proto_reg_handoff_pkixqualified'
p2366
asg11
I1539357710
ssS'packet-isns.c'
p2367
(dp2368
g3
(lp2369
sg5
(lp2370
S'proto_register_isns'
p2371
asg8
(lp2372
S'proto_reg_handoff_isns'
p2373
asg11
I1539357815
ssS'packet-dcerpc-ndr.c'
p2374
(dp2375
g3
(lp2376
sg5
(lp2377
sg8
(lp2378
sg11
I1539357681
ssS'packet-yhoo.c'
p2379
(dp2380
g3
(lp2381
sg5
(lp2382
S'proto_register_yhoo'
p2383
asg8
(lp2384
S'proto_reg_handoff_yhoo'
p2385
asg11
I1539357656
ssS'packet-pw-atm.c'
p2386
(dp2387
g3
(lp2388
sg5
(lp2389
S'proto_register_pw_atm'
p2390
asg8
(lp2391
S'proto_reg_handoff_pw_atm'
p2392
asg11
I1539357811
ssS'packet-nlm.c'
p2393
(dp2394
g3
(lp2395
sg5
(lp2396
S'proto_register_nlm'
p2397
asg8
(lp2398
S'proto_reg_handoff_nlm'
p2399
asg11
I1539357853
ssS'packet-dcp-etsi.c'
p2400
(dp2401
g3
(lp2402
sg5
(lp2403
S'proto_register_dcp_etsi'
p2404
asg8
(lp2405
S'proto_reg_handoff_dcp_etsi'
p2406
asg11
I1539357818
ssS'packet-bctp.c'
p2407
(dp2408
g3
(lp2409
sg5
(lp2410
S'proto_register_bctp'
p2411
asg8
(lp2412
S'proto_reg_handoff_bctp'
p2413
asg11
I1539357684
ssS'packet-packetlogger.c'
p2414
(dp2415
g3
(lp2416
sg5
(lp2417
S'proto_register_packetlogger'
p2418
asg8
(lp2419
S'proto_reg_handoff_packetlogger'
p2420
asg11
I1539357834
ssS'packet-dsp.c'
p2421
(dp2422
g3
(lp2423
sg5
(lp2424
S'proto_register_dsp'
p2425
asg8
(lp2426
S'proto_reg_handoff_dsp'
p2427
asg11
I1539357819
ssS'packet-aim-ssi.c'
p2428
(dp2429
g3
(lp2430
sg5
(lp2431
S'proto_register_aim_ssi'
p2432
asg8
(lp2433
S'proto_reg_handoff_aim_ssi'
p2434
asg11
I1539357755
ssS'packet-mdshdr.c'
p2435
(dp2436
g3
(lp2437
sg5
(lp2438
S'proto_register_mdshdr'
p2439
asg8
(lp2440
S'proto_reg_handoff_mdshdr'
p2441
asg11
I1539357715
ssS'packet-megaco.c'
p2442
(dp2443
g3
(lp2444
sg5
(lp2445
S'proto_register_megaco'
p2446
asg8
(lp2447
S'proto_reg_handoff_megaco'
p2448
asg11
I1539357965
ssS'packet-dnp.c'
p2449
(dp2450
g3
(lp2451
sg5
(lp2452
S'proto_register_dnp3'
p2453
asg8
(lp2454
S'proto_reg_handoff_dnp3'
p2455
asg11
I1539357766
ssS'packet-clnp.c'
p2456
(dp2457
g3
(lp2458
sg5
(lp2459
S'proto_register_clnp'
p2460
asg8
(lp2461
S'proto_reg_handoff_clnp'
p2462
asg11
I1539357656
ssS'packet-inap.c'
p2463
(dp2464
g3
(lp2465
sg5
(lp2466
S'proto_register_inap'
p2467
asg8
(lp2468
S'proto_reg_handoff_inap'
p2469
asg11
I1539358034
ssS'packet-zbee-security.c'
p2470
(dp2471
g3
(lp2472
sg5
(lp2473
sg8
(lp2474
sg11
I1539357716
ssS'packet-dcerpc-rras.c'
p2475
(dp2476
g3
(lp2477
sg5
(lp2478
S'proto_register_dcerpc_rras'
p2479
asg8
(lp2480
S'proto_reg_handoff_dcerpc_rras'
p2481
asg11
I1539357878
ssS'packet-srvloc.c'
p2482
(dp2483
g3
(lp2484
sg5
(lp2485
S'proto_register_srvloc'
p2486
asg8
(lp2487
S'proto_reg_handoff_srvloc'
p2488
asg11
I1539357717
ssS'packet-acap.c'
p2489
(dp2490
g3
(lp2491
sg5
(lp2492
S'proto_register_acap'
p2493
asg8
(lp2494
S'proto_reg_handoff_acap'
p2495
asg11
I1539357648
ssS'packet-telnet.c'
p2496
(dp2497
g3
(lp2498
sg5
(lp2499
S'proto_register_telnet'
p2500
asg8
(lp2501
S'proto_reg_handoff_telnet'
p2502
asg11
I1539357671
ssS'packet-osi.c'
p2503
(dp2504
g3
(lp2505
sg5
(lp2506
S'proto_register_osi'
p2507
asg8
(lp2508
S'proto_reg_handoff_osi'
p2509
asg11
I1539357824
ssS'packet-gsm_a_gm.c'
p2510
(dp2511
g3
(lp2512
sg5
(lp2513
S'proto_register_gsm_a_gm'
p2514
asg8
(lp2515
S'proto_reg_handoff_gsm_a_gm'
p2516
asg11
I1539357797
ssS'packet-simulcrypt.c'
p2517
(dp2518
g3
(lp2519
sg5
(lp2520
S'proto_register_simulcrypt'
p2521
asg8
(lp2522
S'proto_reg_handoff_simulcrypt'
p2523
asg11
I1539357730
ssS'packet-bssap.c'
p2524
(dp2525
g3
(lp2526
sg5
(lp2527
S'proto_register_bssap'
p2528
asg8
(lp2529
S'proto_reg_handoff_bssap'
p2530
asg11
I1539357721
ssS'packet-ipvs-syncd.c'
p2531
(dp2532
g3
(lp2533
sg5
(lp2534
S'proto_register_ipvs_syncd'
p2535
asg8
(lp2536
S'proto_reg_handoff_ipvs_syncd'
p2537
asg11
I1539357868
ssS'packet-dcerpc-netlogon.c'
p2538
(dp2539
g3
(lp2540
sg5
(lp2541
S'proto_register_dcerpc_netlogon'
p2542
asg8
(lp2543
S'proto_reg_handoff_dcerpc_netlogon'
p2544
asg11
I1539357930
ssS'packet-ndps.c'
p2545
(dp2546
g3
(lp2547
sg5
(lp2548
S'proto_register_ndps'
p2549
asg8
(lp2550
S'proto_reg_handoff_ndps'
p2551
asg11
I1539357901
ssS'packet-dcerpc-atsvc.c'
p2552
(dp2553
g3
(lp2554
sg5
(lp2555
S'proto_register_dcerpc_atsvc'
p2556
asg8
(lp2557
S'proto_reg_handoff_dcerpc_atsvc'
p2558
asg11
I1539357720
ssS'packet-tipc.c'
p2559
(dp2560
g3
(lp2561
sg5
(lp2562
S'proto_register_tipc'
p2563
asg8
(lp2564
S'proto_reg_handoff_tipc'
p2565
asg11
I1539357893
ssS'packet-opsi.c'
p2566
(dp2567
g3
(lp2568
sg5
(lp2569
S'proto_register_opsi'
p2570
asg8
(lp2571
S'proto_reg_handoff_opsi'
p2572
asg11
I1539357842
ssS'packet-rwall.c'
p2573
(dp2574
g3
(lp2575
sg5
(lp2576
S'proto_register_rwall'
p2577
asg8
(lp2578
S'proto_reg_handoff_rwall'
p2579
asg11
I1539357830
ssS'packet-fcip.c'
p2580
(dp2581
g3
(lp2582
sg5
(lp2583
S'proto_register_fcip'
p2584
asg8
(lp2585
S'proto_reg_handoff_fcip'
p2586
asg11
I1539357721
ssS'packet-m2pa.c'
p2587
(dp2588
g3
(lp2589
sg5
(lp2590
S'proto_register_m2pa'
p2591
asg8
(lp2592
S'proto_reg_handoff_m2pa'
p2593
asg11
I1539357861
ssS'packet-msn-messenger.c'
p2594
(dp2595
g3
(lp2596
sg5
(lp2597
S'proto_register_msnms'
p2598
asg8
(lp2599
S'proto_reg_handoff_msnms'
p2600
asg11
I1539357722
ssS'packet-kpasswd.c'
p2601
(dp2602
g3
(lp2603
sg5
(lp2604
S'proto_register_kpasswd'
p2605
asg8
(lp2606
S'proto_reg_handoff_kpasswd'
p2607
asg11
I1539357835
ssS'packet-charging_ase.c'
p2608
(dp2609
g3
(lp2610
sg5
(lp2611
S'proto_register_charging_ase'
p2612
asg8
(lp2613
S'proto_reg_handoff_charging_ase'
p2614
asg11
I1539357771
ssS'packet-pagp.c'
p2615
(dp2616
g3
(lp2617
sg5
(lp2618
S'proto_register_pagp'
p2619
asg8
(lp2620
S'proto_reg_handoff_pagp'
p2621
asg11
I1539357669
ssS'packet-bootp.c'
p2622
(dp2623
g3
(lp2624
sg5
(lp2625
S'proto_register_bootp'
p2626
asg8
(lp2627
S'proto_reg_handoff_bootp'
p2628
asg11
I1539357866
ssS'packet-gsm_sms_ud.c'
p2629
(dp2630
g3
(lp2631
sg5
(lp2632
S'proto_register_gsm_sms_ud'
p2633
asg8
(lp2634
S'proto_reg_handoff_gsm_sms_ud'
p2635
asg11
I1539357721
ssS'packet-sadmind.c'
p2636
(dp2637
g3
(lp2638
sg5
(lp2639
S'proto_register_sadmind'
p2640
asg8
(lp2641
S'proto_reg_handoff_sadmind'
p2642
asg11
I1539357867
ssS'packet-dcerpc-update.c'
p2643
(dp2644
g3
(lp2645
sg5
(lp2646
S'proto_register_dce_update'
p2647
asg8
(lp2648
S'proto_reg_handoff_dce_update'
p2649
asg11
I1539357672
ssS'packet-slowprotocols.c'
p2650
(dp2651
g3
(lp2652
sg5
(lp2653
S'proto_register_slow_protocols'
p2654
asg8
(lp2655
S'proto_reg_handoff_slow_protocols'
p2656
asg11
I1539357775
ssS'packet-spp.c'
p2657
(dp2658
g3
(lp2659
sg5
(lp2660
S'proto_register_spp'
p2661
asg8
(lp2662
S'proto_reg_handoff_spp'
p2663
asg11
I1539357719
ssS'packet-nt-oui.c'
p2664
(dp2665
g3
(lp2666
sg5
(lp2667
S'proto_register_nortel_oui'
p2668
asg8
(lp2669
sg11
I1539357906
ssS'packet-dcerpc-dtsstime_req.c'
p2670
(dp2671
g3
(lp2672
sg5
(lp2673
S'proto_register_dtsstime_req'
p2674
asg8
(lp2675
S'proto_reg_handoff_dtsstime_req'
p2676
asg11
I1539357784
ssS'packet-ymsg.c'
p2677
(dp2678
g3
(lp2679
sg5
(lp2680
S'proto_register_ymsg'
p2681
asg8
(lp2682
S'proto_reg_handoff_ymsg'
p2683
asg11
I1539357739
ssS'packet-egd.c'
p2684
(dp2685
g3
(lp2686
sg5
(lp2687
S'proto_register_egd'
p2688
asg8
(lp2689
S'proto_reg_handoff_egd'
p2690
asg11
I1539357916
ssS'packet-tte.c'
p2691
(dp2692
g3
(lp2693
sg5
(lp2694
S'proto_register_tte'
p2695
asg8
(lp2696
S'proto_reg_handoff_tte'
p2697
asg11
I1539357678
ssS'packet-h263.c'
p2698
(dp2699
g3
(lp2700
sg5
(lp2701
S'proto_register_h263_data'
p2702
asg8
(lp2703
sg11
I1539357716
ssS'packet-llc.c'
p2704
(dp2705
g3
(lp2706
sg5
(lp2707
S'proto_register_llc'
p2708
aS'proto_register_basicxid'
p2709
asg8
(lp2710
S'proto_reg_handoff_llc'
p2711
asg11
I1539357889
ssS'packet-dcerpc-dssetup.c'
p2712
(dp2713
g3
(lp2714
sg5
(lp2715
S'proto_register_dcerpc_dssetup'
p2716
asg8
(lp2717
S'proto_reg_handoff_dcerpc_dssetup'
p2718
asg11
I1539357751
ssS'packet-mp4ves.c'
p2719
(dp2720
g3
(lp2721
sg5
(lp2722
S'proto_register_mp4ves'
p2723
asg8
(lp2724
S'proto_reg_handoff_mp4ves'
p2725
asg11
I1539357879
ssS'packet-rsl.c'
p2726
(dp2727
g3
(lp2728
sg5
(lp2729
S'proto_register_rsl'
p2730
asg8
(lp2731
S'proto_reg_handoff_rsl'
p2732
asg11
I1539357856
ssS'packet-sabp.c'
p2733
(dp2734
g3
(lp2735
sg5
(lp2736
S'proto_register_sabp'
p2737
asg8
(lp2738
S'proto_reg_handoff_sabp'
p2739
asg11
I1539357751
ssS'packet-tnef.c'
p2740
(dp2741
g3
(lp2742
sg5
(lp2743
S'proto_register_tnef'
p2744
asg8
(lp2745
S'proto_reg_handoff_tnef'
p2746
asg11
I1539357719
ssS'packet-ajp13.c'
p2747
(dp2748
g3
(lp2749
sg5
(lp2750
S'proto_register_ajp13'
p2751
asg8
(lp2752
S'proto_reg_handoff_ajp13'
p2753
asg11
I1539357808
ssS'packet-dcerpc-samr.c'
p2754
(dp2755
g3
(lp2756
sg5
(lp2757
S'proto_register_dcerpc_samr'
p2758
asg8
(lp2759
S'proto_reg_handoff_dcerpc_samr'
p2760
asg11
I1539358040
ssS'packet-rmt-lct.c'
p2761
(dp2762
g3
(lp2763
sg5
(lp2764
sg8
(lp2765
sg11
I1539357760
ssS'packet-nbap.c'
p2766
(dp2767
g3
(lp2768
sg5
(lp2769
S'proto_register_nbap'
p2770
asg8
(lp2771
S'proto_reg_handoff_nbap'
p2772
asg11
I1539358438
ssS'packet-kink.c'
p2773
(dp2774
g3
(lp2775
sg5
(lp2776
S'proto_register_kink'
p2777
asg8
(lp2778
S'proto_reg_handoff_kink'
p2779
asg11
I1539357879
ssS'packet-msrp.c'
p2780
(dp2781
g3
(lp2782
sg5
(lp2783
S'proto_register_msrp'
p2784
asg8
(lp2785
S'proto_reg_handoff_msrp'
p2786
asg11
I1539357697
ssS'packet-osi-options.c'
p2787
(dp2788
g3
(lp2789
sg5
(lp2790
S'proto_register_osi_options'
p2791
asg8
(lp2792
sg11
I1539357791
ssS'packet-tds.c'
p2793
(dp2794
g3
(lp2795
sg5
(lp2796
S'proto_register_tds'
p2797
asg8
(lp2798
S'proto_reg_handoff_tds'
p2799
asg11
I1539357912
ssS'packet-sctp.c'
p2800
(dp2801
g3
(lp2802
sg5
(lp2803
S'proto_register_sctp'
p2804
asg8
(lp2805
S'proto_reg_handoff_sctp'
p2806
asg11
I1539357920
ssS'packet-diameter_3gpp.c'
p2807
(dp2808
g3
(lp2809
sg5
(lp2810
S'proto_register_diameter_3gpp'
p2811
asg8
(lp2812
S'proto_reg_handoff_diameter_3gpp'
p2813
asg11
I1539357689
ssS'packet-fr.c'
p2814
(dp2815
g3
(lp2816
sg5
(lp2817
S'proto_register_fr'
p2818
asg8
(lp2819
S'proto_reg_handoff_fr'
p2820
asg11
I1539357736
ssS'packet-rdm.c'
p2821
(dp2822
g3
(lp2823
sg5
(lp2824
S'proto_register_rdm'
p2825
asg8
(lp2826
S'proto_reg_handoff_rdm'
p2827
asg11
I1539357863
ssS'packet-pvfs2.c'
p2828
(dp2829
g3
(lp2830
sg5
(lp2831
S'proto_register_pvfs'
p2832
asg8
(lp2833
S'proto_reg_handoff_pvfs'
p2834
asg11
I1539357737
ssS'packet-x411.c'
p2835
(dp2836
g3
(lp2837
sg5
(lp2838
S'proto_register_x411'
p2839
asg8
(lp2840
S'proto_reg_handoff_x411'
p2841
asg11
I1539358051
ssS'packet-xdmcp.c'
p2842
(dp2843
g3
(lp2844
sg5
(lp2845
S'proto_register_xdmcp'
p2846
asg8
(lp2847
S'proto_reg_handoff_xdmcp'
p2848
asg11
I1539357669
ssS'packet-iapp.c'
p2849
(dp2850
g3
(lp2851
sg5
(lp2852
S'proto_register_iapp'
p2853
asg8
(lp2854
S'proto_reg_handoff_iapp'
p2855
asg11
I1539357657
ssS'packet-rstat.c'
p2856
(dp2857
g3
(lp2858
sg5
(lp2859
S'proto_register_rstat'
p2860
asg8
(lp2861
S'proto_reg_handoff_rstat'
p2862
asg11
I1539357724
ssS'packet-dcerpc-rpriv.c'
p2863
(dp2864
g3
(lp2865
sg5
(lp2866
S'proto_register_rpriv'
p2867
asg8
(lp2868
S'proto_reg_handoff_rpriv'
p2869
asg11
I1539357758
ssS'packet-rtmpt.c'
p2870
(dp2871
g3
(lp2872
sg5
(lp2873
S'proto_register_rtmpt'
p2874
asg8
(lp2875
S'proto_reg_handoff_rtmpt'
p2876
asg11
I1539357712
ssS'packet-componentstatus.c'
p2877
(dp2878
g3
(lp2879
sg5
(lp2880
S'proto_register_componentstatusprotocol'
p2881
asg8
(lp2882
S'proto_reg_handoff_componentstatusprotocol'
p2883
asg11
I1539357678
ssS'packet-image-png.c'
p2884
(dp2885
g3
(lp2886
sg5
(lp2887
S'proto_register_png'
p2888
asg8
(lp2889
S'proto_reg_handoff_png'
p2890
asg11
I1539357670
ssS'packet-dcerpc-rs_attr_schema.c'
p2891
(dp2892
g3
(lp2893
sg5
(lp2894
S'proto_register_rs_attr_schema'
p2895
asg8
(lp2896
S'proto_reg_handoff_rs_attr_schema'
p2897
asg11
I1539357663
ssS'packet-image-gif.c'
p2898
(dp2899
g3
(lp2900
sg5
(lp2901
S'proto_register_gif'
p2902
asg8
(lp2903
S'proto_reg_handoff_gif'
p2904
asg11
I1539357819
ssS'packet-udp.c'
p2905
(dp2906
g3
(lp2907
sg5
(lp2908
S'proto_register_udp'
p2909
asg8
(lp2910
S'proto_reg_handoff_udp'
p2911
asg11
I1539357842
ssS'packet-image-jfif.c'
p2912
(dp2913
g3
(lp2914
sg5
(lp2915
S'proto_register_jfif'
p2916
asg8
(lp2917
S'proto_reg_handoff_jfif'
p2918
asg11
I1539357871
ssS'packet-lapbether.c'
p2919
(dp2920
g3
(lp2921
sg5
(lp2922
S'proto_register_lapbether'
p2923
asg8
(lp2924
S'proto_reg_handoff_lapbether'
p2925
asg11
I1539357906
ssS'packet-h245.c'
p2926
(dp2927
g3
(lp2928
sg5
(lp2929
S'proto_register_h245'
p2930
asg8
(lp2931
S'proto_reg_handoff_h245'
p2932
asg11
I1539358076
ssS'packet-scriptingservice.c'
p2933
(dp2934
g3
(lp2935
sg5
(lp2936
S'proto_register_ssprotocol'
p2937
asg8
(lp2938
S'proto_reg_handoff_ssprotocol'
p2939
asg11
I1539357717
ssS'packet-h248_annex_c.c'
p2940
(dp2941
g3
(lp2942
sg5
(lp2943
S'proto_register_h248_annex_c'
p2944
asg8
(lp2945
sg11
I1539357696
ssS'packet-arcnet.c'
p2946
(dp2947
g3
(lp2948
sg5
(lp2949
S'proto_register_arcnet'
p2950
asg8
(lp2951
S'proto_reg_handoff_arcnet'
p2952
asg11
I1539357793
ssS'packet-mac-lte.c'
p2953
(dp2954
g3
(lp2955
sg5
(lp2956
S'proto_register_mac_lte'
p2957
asg8
(lp2958
sg11
I1539357828
ssS'packet-x509ce.c'
p2959
(dp2960
g3
(lp2961
sg5
(lp2962
S'proto_register_x509ce'
p2963
asg8
(lp2964
S'proto_reg_handoff_x509ce'
p2965
asg11
I1539357911
ssS'packet-l1-events.c'
p2966
(dp2967
g3
(lp2968
sg5
(lp2969
S'proto_register_l1_events'
p2970
asg8
(lp2971
S'proto_reg_handoff_l1_events'
p2972
asg11
I1539357678
ssS'packet-udld.c'
p2973
(dp2974
g3
(lp2975
sg5
(lp2976
S'proto_register_udld'
p2977
asg8
(lp2978
S'proto_reg_handoff_udld'
p2979
asg11
I1539357843
ssS'packet-h501.c'
p2980
(dp2981
g3
(lp2982
sg5
(lp2983
S'proto_register_h501'
p2984
asg8
(lp2985
S'proto_reg_handoff_h501'
p2986
asg11
I1539357729
ssS'packet-ulp.c'
p2987
(dp2988
g3
(lp2989
sg5
(lp2990
S'proto_register_ulp'
p2991
asg8
(lp2992
S'proto_reg_handoff_ulp'
p2993
asg11
I1539357725
ssS'packet-dcerpc-frsapi.c'
p2994
(dp2995
g3
(lp2996
sg5
(lp2997
S'proto_register_dcerpc_frsapi'
p2998
asg8
(lp2999
S'proto_reg_handoff_dcerpc_frsapi'
p3000
asg11
I1539357679
ssS'packet-s5066.c'
p3001
(dp3002
g3
(lp3003
sg5
(lp3004
S'proto_register_s5066'
p3005
asg8
(lp3006
S'proto_reg_handoff_s5066'
p3007
asg11
I1539357661
ssS'packet-dcerpc-nspi.c'
p3008
(dp3009
g3
(lp3010
sg5
(lp3011
S'proto_register_dcerpc_nspi'
p3012
asg8
(lp3013
S'proto_reg_handoff_dcerpc_nspi'
p3014
asg11
I1539357830
ssS'packet-ifcp.c'
p3015
(dp3016
g3
(lp3017
sg5
(lp3018
S'proto_register_ifcp'
p3019
asg8
(lp3020
S'proto_reg_handoff_ifcp'
p3021
asg11
I1539357884
ssS'packet-dmp.c'
p3022
(dp3023
g3
(lp3024
sg5
(lp3025
S'proto_register_dmp'
p3026
asg8
(lp3027
S'proto_reg_handoff_dmp'
p3028
asg11
I1539357801
ssS'packet-gnutella.c'
p3029
(dp3030
g3
(lp3031
sg5
(lp3032
S'proto_register_gnutella'
p3033
asg8
(lp3034
S'proto_reg_handoff_gnutella'
p3035
asg11
I1539357755
ssS'packet-nisplus.c'
p3036
(dp3037
g3
(lp3038
sg5
(lp3039
S'proto_register_nis'
p3040
aS'proto_register_niscb'
p3041
asg8
(lp3042
S'proto_reg_handoff_nis'
p3043
aS'proto_reg_handoff_niscb'
p3044
asg11
I1539357789
ssS'packet-3com-xns.c'
p3045
(dp3046
g3
(lp3047
sg5
(lp3048
S'proto_register_3com_xns'
p3049
asg8
(lp3050
S'proto_reg_handoff_3com_xns'
p3051
asg11
I1539357832
ssS'packet-dcerpc-messenger.c'
p3052
(dp3053
g3
(lp3054
sg5
(lp3055
S'proto_register_dcerpc_messenger'
p3056
asg8
(lp3057
S'proto_reg_handoff_dcerpc_messenger'
p3058
asg11
I1539357881
ssS'packet-h235.c'
p3059
(dp3060
g3
(lp3061
sg5
(lp3062
S'proto_register_h235'
p3063
asg8
(lp3064
S'proto_reg_handoff_h235'
p3065
asg11
I1539357666
ssS'packet-h225.c'
p3066
(dp3067
g3
(lp3068
sg5
(lp3069
S'proto_register_h225'
p3070
asg8
(lp3071
S'proto_reg_handoff_h225'
p3072
asg11
I1539358034
ssS'packet-tali.c'
p3073
(dp3074
g3
(lp3075
sg5
(lp3076
S'proto_register_tali'
p3077
asg8
(lp3078
S'proto_reg_handoff_tali'
p3079
asg11
I1539357669
ssS'packet-ieee802154.c'
p3080
(dp3081
g3
(lp3082
sg5
(lp3083
S'proto_register_ieee802154'
p3084
asg8
(lp3085
S'proto_reg_handoff_ieee802154'
p3086
asg11
I1539357914
ssS'packet-pflog.c'
p3087
(dp3088
g3
(lp3089
sg5
(lp3090
S'proto_register_pflog'
p3091
aS'proto_register_old_pflog'
p3092
asg8
(lp3093
S'proto_reg_handoff_pflog'
p3094
aS'proto_reg_handoff_old_pflog'
p3095
asg11
I1539357702
ssS'packet-sbus.c'
p3096
(dp3097
g3
(lp3098
sg5
(lp3099
S'proto_register_sbus'
p3100
asg8
(lp3101
S'proto_reg_handoff_sbus'
p3102
asg11
I1539357937
ssS'packet-ripng.c'
p3103
(dp3104
g3
(lp3105
sg5
(lp3106
S'proto_register_ripng'
p3107
asg8
(lp3108
S'proto_reg_handoff_ripng'
p3109
asg11
I1539357762
ssS'packet-spray.c'
p3110
(dp3111
g3
(lp3112
sg5
(lp3113
S'proto_register_spray'
p3114
asg8
(lp3115
S'proto_reg_handoff_spray'
p3116
asg11
I1539357646
ssS'packet-eapol.c'
p3117
(dp3118
g3
(lp3119
sg5
(lp3120
S'proto_register_eapol'
p3121
asg8
(lp3122
S'proto_reg_handoff_eapol'
p3123
asg11
I1539357651
ssS'packet-ntp.c'
p3124
(dp3125
g3
(lp3126
sg5
(lp3127
S'proto_register_ntp'
p3128
asg8
(lp3129
S'proto_reg_handoff_ntp'
p3130
asg11
I1539357662
ssS'packet-lmp.c'
p3131
(dp3132
g3
(lp3133
sg5
(lp3134
S'proto_register_lmp'
p3135
asg8
(lp3136
S'proto_reg_handoff_lmp'
p3137
asg11
I1539357912
ssS'packet-tns.c'
p3138
(dp3139
g3
(lp3140
sg5
(lp3141
S'proto_register_tns'
p3142
asg8
(lp3143
S'proto_reg_handoff_tns'
p3144
asg11
I1539357666
ssS'packet-dcerpc-rsec_login.c'
p3145
(dp3146
g3
(lp3147
sg5
(lp3148
S'proto_register_rsec_login'
p3149
asg8
(lp3150
S'proto_reg_handoff_rsec_login'
p3151
asg11
I1539357744
ssS'packet-gprs-ns.c'
p3152
(dp3153
g3
(lp3154
sg5
(lp3155
S'proto_register_gprs_ns'
p3156
asg8
(lp3157
S'proto_reg_handoff_gprs_ns'
p3158
asg11
I1539357786
ssS'packet-mtp3.c'
p3159
(dp3160
g3
(lp3161
sg5
(lp3162
S'proto_register_mtp3'
p3163
asg8
(lp3164
S'proto_reg_handoff_mtp3'
p3165
asg11
I1539357920
ssS'packet-ismacryp.c'
p3166
(dp3167
g3
(lp3168
sg5
(lp3169
S'proto_register_ismacryp'
p3170
asg8
(lp3171
S'proto_reg_handoff_ismacryp'
p3172
asg11
I1539357893
ssS'packet-rtps2.c'
p3173
(dp3174
g3
(lp3175
sg5
(lp3176
S'proto_register_rtps2'
p3177
asg8
(lp3178
S'proto_reg_handoff_rtps2'
p3179
asg11
I1539357827
ssS'packet-ismp.c'
p3180
(dp3181
g3
(lp3182
sg5
(lp3183
S'proto_register_ismp'
p3184
asg8
(lp3185
S'proto_reg_handoff_ismp'
p3186
asg11
I1539357927
ssS'packet-dcerpc-cprpc_server.c'
p3187
(dp3188
g3
(lp3189
sg5
(lp3190
S'proto_register_cprpc_server'
p3191
asg8
(lp3192
S'proto_reg_handoff_cprpc_server'
p3193
asg11
I1539357686
ssS'packet-oicq.c'
p3194
(dp3195
g3
(lp3196
sg5
(lp3197
S'proto_register_oicq'
p3198
asg8
(lp3199
S'proto_reg_handoff_oicq'
p3200
asg11
I1539357684
ssS'packet-brdwlk.c'
p3201
(dp3202
g3
(lp3203
sg5
(lp3204
S'proto_register_brdwlk'
p3205
asg8
(lp3206
S'proto_reg_handoff_brdwlk'
p3207
asg11
I1539357789
ssS'packet-h261.c'
p3208
(dp3209
g3
(lp3210
sg5
(lp3211
S'proto_register_h261'
p3212
asg8
(lp3213
S'proto_reg_handoff_h261'
p3214
asg11
I1539357685
ssS'packet-dcerpc-frsrpc.c'
p3215
(dp3216
g3
(lp3217
sg5
(lp3218
S'proto_register_dcerpc_frsrpc'
p3219
asg8
(lp3220
S'proto_reg_handoff_dcerpc_frsrpc'
p3221
asg11
I1539357877
ssS'packet-atalk.c'
p3222
(dp3223
g3
(lp3224
sg5
(lp3225
S'proto_register_atalk'
p3226
asg8
(lp3227
S'proto_reg_handoff_atalk'
p3228
asg11
I1539357746
ssS'packet-nbipx.c'
p3229
(dp3230
g3
(lp3231
sg5
(lp3232
S'proto_register_nbipx'
p3233
aS'proto_register_nmpi'
p3234
asg8
(lp3235
S'proto_reg_handoff_nbipx'
p3236
aS'proto_reg_handoff_nmpi'
p3237
asg11
I1539357925
ssS'packet-ypxfr.c'
p3238
(dp3239
g3
(lp3240
sg5
(lp3241
S'proto_register_ypxfr'
p3242
asg8
(lp3243
S'proto_reg_handoff_ypxfr'
p3244
asg11
I1539357725
ssS'packet-scsi-smc.c'
p3245
(dp3246
g3
(lp3247
sg5
(lp3248
S'proto_register_scsi_smc'
p3249
asg8
(lp3250
S'proto_reg_handoff_scsi_smc'
p3251
asg11
I1539357847
ssS'packet-kingfisher.c'
p3252
(dp3253
g3
(lp3254
sg5
(lp3255
S'proto_register_kingfisher'
p3256
asg8
(lp3257
S'proto_reg_handoff_kingfisher'
p3258
asg11
I1539357687
ssS'packet-synphasor.c'
p3259
(dp3260
g3
(lp3261
sg5
(lp3262
S'proto_register_synphasor'
p3263
asg8
(lp3264
S'proto_reg_handoff_synphasor'
p3265
asg11
I1539357698
ssS'packet-bvlc.c'
p3266
(dp3267
g3
(lp3268
sg5
(lp3269
S'proto_register_bvlc'
p3270
asg8
(lp3271
S'proto_reg_handoff_bvlc'
p3272
asg11
I1539357792
ssS'packet-zep.c'
p3273
(dp3274
g3
(lp3275
sg5
(lp3276
S'proto_register_zep'
p3277
asg8
(lp3278
S'proto_reg_handoff_zep'
p3279
asg11
I1539357731
ssS'packet-scsi-mmc.c'
p3280
(dp3281
g3
(lp3282
sg5
(lp3283
S'proto_register_scsi_mmc'
p3284
asg8
(lp3285
S'proto_reg_handoff_scsi_mmc'
p3286
asg11
I1539357742
ssS'packet-gsm_sms.c'
p3287
(dp3288
g3
(lp3289
sg5
(lp3290
S'proto_register_gsm_sms'
p3291
asg8
(lp3292
S'proto_reg_handoff_gsm_sms'
p3293
asg11
I1539357963
ssS'packet-aim-messaging.c'
p3294
(dp3295
g3
(lp3296
sg5
(lp3297
S'proto_register_aim_messaging'
p3298
asg8
(lp3299
S'proto_reg_handoff_aim_messaging'
p3300
asg11
I1539357665
ssS'packet-aim-popup.c'
p3301
(dp3302
g3
(lp3303
sg5
(lp3304
S'proto_register_aim_popup'
p3305
asg8
(lp3306
S'proto_reg_handoff_aim_popup'
p3307
asg11
I1539357671
ssS'packet-aoe.c'
p3308
(dp3309
g3
(lp3310
sg5
(lp3311
S'proto_register_aoe'
p3312
asg8
(lp3313
S'proto_reg_handoff_aoe'
p3314
asg11
I1539357793
ssS'packet-rrlp.c'
p3315
(dp3316
g3
(lp3317
sg5
(lp3318
S'proto_register_rrlp'
p3319
asg8
(lp3320
S'proto_reg_handoff_rrlp'
p3321
asg11
I1539357948
ssS'packet-rlm.c'
p3322
(dp3323
g3
(lp3324
sg5
(lp3325
S'proto_register_rlm'
p3326
asg8
(lp3327
S'proto_reg_handoff_rlm'
p3328
asg11
I1539357751
ssS'packet-iuup.c'
p3329
(dp3330
g3
(lp3331
sg5
(lp3332
S'proto_register_iuup'
p3333
asg8
(lp3334
S'proto_reg_handoff_iuup'
p3335
asg11
I1539357816
ssS'packet-zbee-zdp-discovery.c'
p3336
(dp3337
g3
(lp3338
sg5
(lp3339
sg8
(lp3340
sg11
I1539357892
ssS'packet-dop.c'
p3341
(dp3342
g3
(lp3343
sg5
(lp3344
S'proto_register_dop'
p3345
asg8
(lp3346
S'proto_reg_handoff_dop'
p3347
asg11
I1539357895
ssS'packet-v5ua.c'
p3348
(dp3349
g3
(lp3350
sg5
(lp3351
S'proto_register_v5ua'
p3352
asg8
(lp3353
S'proto_reg_handoff_v5ua'
p3354
asg11
I1539357722
ssS'packet-rpl.c'
p3355
(dp3356
g3
(lp3357
sg5
(lp3358
S'proto_register_rpl'
p3359
asg8
(lp3360
S'proto_reg_handoff_rpl'
p3361
asg11
I1539357666
ssS'packet-x11.c'
p3362
(dp3363
g3
(lp3364
sg5
(lp3365
S'proto_register_x11'
p3366
asg8
(lp3367
S'proto_reg_handoff_x11'
p3368
asg11
I1539357755
ssS'packet-bgp.c'
p3369
(dp3370
g3
(lp3371
sg5
(lp3372
S'proto_register_bgp'
p3373
asg8
(lp3374
S'proto_reg_handoff_bgp'
p3375
asg11
I1539357886
ssS'packet-dcerpc-rep_proc.c'
p3376
(dp3377
g3
(lp3378
sg5
(lp3379
S'proto_register_rep_proc'
p3380
asg8
(lp3381
S'proto_reg_handoff_rep_proc'
p3382
asg11
I1539357695
ssS'packet-iua.c'
p3383
(dp3384
g3
(lp3385
sg5
(lp3386
S'proto_register_iua'
p3387
asg8
(lp3388
S'proto_reg_handoff_iua'
p3389
asg11
I1539357783
ssS'packet-tcap.c'
p3390
(dp3391
g3
(lp3392
sg5
(lp3393
S'proto_register_tcap'
p3394
asg8
(lp3395
S'proto_reg_handoff_tcap'
p3396
asg11
I1539357806
ssS'packet-sita.c'
p3397
(dp3398
g3
(lp3399
sg5
(lp3400
S'proto_register_sita'
p3401
asg8
(lp3402
S'proto_reg_handoff_sita'
p3403
asg11
I1539357780
ssS'packet-dcerpc-rs_pgo.c'
p3404
(dp3405
g3
(lp3406
sg5
(lp3407
S'proto_register_rs_pgo'
p3408
asg8
(lp3409
S'proto_reg_handoff_rs_pgo'
p3410
asg11
I1539357775
ssS'packet-media.c'
p3411
(dp3412
g3
(lp3413
sg5
(lp3414
S'proto_register_media'
p3415
asg8
(lp3416
sg11
I1539357844
ssS'packet-h450.c'
p3417
(dp3418
g3
(lp3419
sg5
(lp3420
S'proto_register_h450'
p3421
asg8
(lp3422
S'proto_reg_handoff_h450'
p3423
asg11
I1539357836
ssS'packet-wsp.c'
p3424
(dp3425
g3
(lp3426
sg5
(lp3427
S'proto_register_wsp'
p3428
aS'proto_register_sir'
p3429
asg8
(lp3430
S'proto_reg_handoff_wsp'
p3431
aS'proto_reg_handoff_sir'
p3432
asg11
I1539357873
ssS'packet-ddtp.c'
p3433
(dp3434
g3
(lp3435
sg5
(lp3436
S'proto_register_ddtp'
p3437
asg8
(lp3438
S'proto_reg_handoff_ddtp'
p3439
asg11
I1539357720
ssS'packet-tsp.c'
p3440
(dp3441
g3
(lp3442
sg5
(lp3443
S'proto_register_tsp'
p3444
asg8
(lp3445
S'proto_reg_handoff_tsp'
p3446
asg11
I1539357669
ssS'packet-cimd.c'
p3447
(dp3448
g3
(lp3449
sg5
(lp3450
S'proto_register_cimd'
p3451
asg8
(lp3452
S'proto_reg_handoff_cimd'
p3453
asg11
I1539357797
ssS'packet-mikey.c'
p3454
(dp3455
g3
(lp3456
sg5
(lp3457
S'proto_register_mikey'
p3458
asg8
(lp3459
S'proto_reg_handoff_mikey'
p3460
asg11
I1539357696
ssS'packet-auto_rp.c'
p3461
(dp3462
g3
(lp3463
sg5
(lp3464
S'proto_register_auto_rp'
p3465
asg8
(lp3466
S'proto_reg_handoff_auto_rp'
p3467
asg11
I1539357645
ssS'packet-lpd.c'
p3468
(dp3469
g3
(lp3470
sg5
(lp3471
S'proto_register_lpd'
p3472
asg8
(lp3473
S'proto_reg_handoff_lpd'
p3474
asg11
I1539357730
ssS'packet-ldap.c'
p3475
(dp3476
g3
(lp3477
sg5
(lp3478
S'proto_register_ldap'
p3479
asg8
(lp3480
S'proto_reg_handoff_ldap'
p3481
asg11
I1539357961
ssS'packet-amqp.c'
p3482
(dp3483
g3
(lp3484
sg5
(lp3485
S'proto_register_amqp'
p3486
asg8
(lp3487
S'proto_reg_handoff_amqp'
p3488
asg11
I1539357783
ssS'packet-multipart.c'
p3489
(dp3490
g3
(lp3491
sg5
(lp3492
S'proto_register_multipart'
p3493
asg8
(lp3494
S'proto_reg_handoff_multipart'
p3495
asg11
I1539357808
ssS'packet-omapi.c'
p3496
(dp3497
g3
(lp3498
sg5
(lp3499
S'proto_register_omapi'
p3500
asg8
(lp3501
S'proto_reg_handoff_omapi'
p3502
asg11
I1539357703
ssS'packet-ascend.c'
p3503
(dp3504
g3
(lp3505
sg5
(lp3506
S'proto_register_ascend'
p3507
asg8
(lp3508
S'proto_reg_handoff_ascend'
p3509
asg11
I1539357650
ssS'packet-dis-enums.c'
p3510
(dp3511
g3
(lp3512
sg5
(lp3513
sg8
(lp3514
sg11
I1539357921
ssS'packet-uma.c'
p3515
(dp3516
g3
(lp3517
sg5
(lp3518
S'proto_register_uma'
p3519
asg8
(lp3520
S'proto_reg_handoff_uma'
p3521
asg11
I1539357870
ssS'packet-sdlc.c'
p3522
(dp3523
g3
(lp3524
sg5
(lp3525
S'proto_register_sdlc'
p3526
asg8
(lp3527
S'proto_reg_handoff_sdlc'
p3528
asg11
I1539357768
ssS'packet-h263p.c'
p3529
(dp3530
g3
(lp3531
sg5
(lp3532
S'proto_register_h263P'
p3533
asg8
(lp3534
S'proto_reg_handoff_h263P'
p3535
asg11
I1539357730
ssS'packet-dcerpc-dce122.c'
p3536
(dp3537
g3
(lp3538
sg5
(lp3539
sg8
(lp3540
sg11
I1539357728
ssS'packet-hci_h4.c'
p3541
(dp3542
g3
(lp3543
sg5
(lp3544
S'proto_register_hci_h4'
p3545
asg8
(lp3546
S'proto_reg_handoff_hci_h4'
p3547
asg11
I1539357769
ssS'packet-dplay.c'
p3548
(dp3549
g3
(lp3550
sg5
(lp3551
S'proto_register_dplay'
p3552
asg8
(lp3553
S'proto_reg_handoff_dplay'
p3554
asg11
I1539357883
ssS'packet-ap1394.c'
p3555
(dp3556
g3
(lp3557
sg5
(lp3558
S'proto_register_ap1394'
p3559
asg8
(lp3560
S'proto_reg_handoff_ap1394'
p3561
asg11
I1539357778
ssS'packet-afp.c'
p3562
(dp3563
g3
(lp3564
sg5
(lp3565
S'proto_register_afp'
p3566
asg8
(lp3567
S'proto_reg_handoff_afp'
p3568
asg11
I1539357926
ssS'packet-igmp.c'
p3569
(dp3570
g3
(lp3571
sg5
(lp3572
S'proto_register_igmp'
p3573
asg8
(lp3574
S'proto_reg_handoff_igmp'
p3575
asg11
I1539357722
ssS'packet-hpsw.c'
p3576
(dp3577
g3
(lp3578
sg5
(lp3579
S'proto_register_hpsw'
p3580
asg8
(lp3581
S'proto_reg_handoff_hpsw'
p3582
asg11
I1539357645
ssS'packet-pkixproxy.c'
p3583
(dp3584
g3
(lp3585
sg5
(lp3586
S'proto_register_pkixproxy'
p3587
asg8
(lp3588
S'proto_reg_handoff_pkixproxy'
p3589
asg11
I1539357786
ssS'packet-scsi.c'
p3590
(dp3591
g3
(lp3592
sg5
(lp3593
S'proto_register_scsi'
p3594
asg8
(lp3595
S'proto_reg_handoff_scsi'
p3596
asg11
I1539357922
ssS'packet-nat-pmp.c'
p3597
(dp3598
g3
(lp3599
sg5
(lp3600
S'proto_register_nat_pmp'
p3601
asg8
(lp3602
S'proto_reg_handoff_nat_pmp'
p3603
asg11
I1539357786
ssS'packet-aodv.c'
p3604
(dp3605
g3
(lp3606
sg5
(lp3607
S'proto_register_aodv'
p3608
asg8
(lp3609
S'proto_reg_handoff_aodv'
p3610
asg11
I1539357898
ssS'packet-nbns.c'
p3611
(dp3612
g3
(lp3613
sg5
(lp3614
S'proto_register_nbt'
p3615
asg8
(lp3616
S'proto_reg_handoff_nbt'
p3617
asg11
I1539357686
ssS'packet-ansi_637.c'
p3618
(dp3619
g3
(lp3620
sg5
(lp3621
S'proto_register_ansi_637'
p3622
asg8
(lp3623
S'proto_reg_handoff_ansi_637'
p3624
asg11
I1539357756
ssS'packet-zbee-zdp-management.c'
p3625
(dp3626
g3
(lp3627
sg5
(lp3628
sg8
(lp3629
sg11
I1539357657
ssS'packet-dect.c'
p3630
(dp3631
g3
(lp3632
sg5
(lp3633
S'proto_register_dect'
p3634
asg8
(lp3635
S'proto_reg_handoff_dect'
p3636
asg11
I1539357712
ssS'packet-pw-hdlc.c'
p3637
(dp3638
g3
(lp3639
sg5
(lp3640
S'proto_register_pw_hdlc'
p3641
asg8
(lp3642
S'proto_reg_handoff_pw_hdlc'
p3643
asg11
I1539357779
ssS'packet-x509af.c'
p3644
(dp3645
g3
(lp3646
sg5
(lp3647
S'proto_register_x509af'
p3648
asg8
(lp3649
S'proto_reg_handoff_x509af'
p3650
asg11
I1539357708
ssS'packet-aim-adverts.c'
p3651
(dp3652
g3
(lp3653
sg5
(lp3654
S'proto_register_aim_adverts'
p3655
asg8
(lp3656
S'proto_reg_handoff_aim_adverts'
p3657
asg11
I1539357750
ssS'packet-umts_fp.c'
p3658
(dp3659
g3
(lp3660
sg5
(lp3661
S'proto_register_fp'
p3662
asg8
(lp3663
S'proto_reg_handoff_fp'
p3664
asg11
I1539357756
ssS'packet-gsm_bssmap_le.c'
p3665
(dp3666
g3
(lp3667
sg5
(lp3668
S'proto_register_gsm_bssmap_le'
p3669
asg8
(lp3670
S'proto_reg_handoff_gsm_bssmap_le'
p3671
asg11
I1539357703
ssS'packet-dcerpc-drsuapi.c'
p3672
(dp3673
g3
(lp3674
sg5
(lp3675
S'proto_register_drsuapi'
p3676
asg8
(lp3677
S'proto_reg_handoff_drsuapi'
p3678
asg11
I1539358000
ssS'packet-ansi_a.c'
p3679
(dp3680
g3
(lp3681
sg5
(lp3682
S'proto_register_ansi_a'
p3683
asg8
(lp3684
S'proto_reg_handoff_ansi_a'
p3685
asg11
I1539357979
ssS'packet-igrp.c'
p3686
(dp3687
g3
(lp3688
sg5
(lp3689
S'proto_register_igrp'
p3690
asg8
(lp3691
S'proto_reg_handoff_igrp'
p3692
asg11
I1539357708
ssS'packet-gre.c'
p3693
(dp3694
g3
(lp3695
sg5
(lp3696
S'proto_register_gre'
p3697
asg8
(lp3698
S'proto_reg_handoff_gre'
p3699
asg11
I1539357676
ssS'packet-lwres.c'
p3700
(dp3701
g3
(lp3702
sg5
(lp3703
S'proto_register_lwres'
p3704
asg8
(lp3705
S'proto_reg_handoff_lwres'
p3706
asg11
I1539357921
ssS'packet-klm.c'
p3707
(dp3708
g3
(lp3709
sg5
(lp3710
S'proto_register_klm'
p3711
asg8
(lp3712
S'proto_reg_handoff_klm'
p3713
asg11
I1539357673
ssS'packet-mpls-echo.c'
p3714
(dp3715
g3
(lp3716
sg5
(lp3717
S'proto_register_mpls_echo'
p3718
asg8
(lp3719
S'proto_reg_handoff_mpls_echo'
p3720
asg11
I1539357693
ssS'packet-aim-stats.c'
p3721
(dp3722
g3
(lp3723
sg5
(lp3724
S'proto_register_aim_stats'
p3725
asg8
(lp3726
S'proto_reg_handoff_aim_stats'
p3727
asg11
I1539357647
ssS'packet-h223.c'
p3728
(dp3729
g3
(lp3730
sg5
(lp3731
S'proto_register_h223'
p3732
asg8
(lp3733
S'proto_reg_handoff_h223'
p3734
asg11
I1539357762
ssS'packet-pop.c'
p3735
(dp3736
g3
(lp3737
sg5
(lp3738
S'proto_register_pop'
p3739
asg8
(lp3740
S'proto_reg_handoff_pop'
p3741
asg11
I1539357766
ssS'packet-asap.c'
p3742
(dp3743
g3
(lp3744
sg5
(lp3745
S'proto_register_asap'
p3746
asg8
(lp3747
S'proto_reg_handoff_asap'
p3748
asg11
I1539357673
ssS'packet-dcerpc-rs_prop_acl.c'
p3749
(dp3750
g3
(lp3751
sg5
(lp3752
S'proto_register_rs_prop_acl'
p3753
asg8
(lp3754
S'proto_reg_handoff_rs_prop_acl'
p3755
asg11
I1539357667
ssS'packet-dcerpc-initshutdown.c'
p3756
(dp3757
g3
(lp3758
sg5
(lp3759
S'proto_register_dcerpc_initshutdown'
p3760
asg8
(lp3761
S'proto_reg_handoff_dcerpc_initshutdown'
p3762
asg11
I1539357764
ssS'packet-dcerpc-budb.c'
p3763
(dp3764
g3
(lp3765
sg5
(lp3766
S'proto_register_budb'
p3767
asg8
(lp3768
S'proto_reg_handoff_budb'
p3769
asg11
I1539357928
ssS'packet-smpp.c'
p3770
(dp3771
g3
(lp3772
sg5
(lp3773
S'proto_register_smpp'
p3774
asg8
(lp3775
S'proto_reg_handoff_smpp'
p3776
asg11
I1539357884
ssS'packet-usb-masstorage.c'
p3777
(dp3778
g3
(lp3779
sg5
(lp3780
S'proto_register_usb_ms'
p3781
asg8
(lp3782
S'proto_reg_handoff_usb_ms'
p3783
asg11
I1539357668
ssS'packet-airopeek.c'
p3784
(dp3785
g3
(lp3786
sg5
(lp3787
S'proto_register_airopeek'
p3788
asg8
(lp3789
S'proto_reg_handoff_airopeek'
p3790
asg11
I1539357777
ssS'packet-eap.c'
p3791
(dp3792
g3
(lp3793
sg5
(lp3794
S'proto_register_eap'
p3795
asg8
(lp3796
S'proto_reg_handoff_eap'
p3797
asg11
I1539357708
ssS'packet-ipsi-ctl.c'
p3798
(dp3799
g3
(lp3800
sg5
(lp3801
S'proto_register_ipsictl'
p3802
asg8
(lp3803
S'proto_reg_handoff_ipsictl'
p3804
asg11
I1539357786
ssS'packet-pptp.c'
p3805
(dp3806
g3
(lp3807
sg5
(lp3808
S'proto_register_pptp'
p3809
asg8
(lp3810
S'proto_reg_handoff_pptp'
p3811
asg11
I1539357722
ssS'packet-dcerpc-fldb.c'
p3812
(dp3813
g3
(lp3814
sg5
(lp3815
S'proto_register_fldb'
p3816
asg8
(lp3817
S'proto_reg_handoff_fldb'
p3818
asg11
I1539357917
ssS'packet-ber.c'
p3819
(dp3820
g3
(lp3821
sg5
(lp3822
S'proto_register_ber'
p3823
asg8
(lp3824
S'proto_reg_handoff_ber'
p3825
asg11
I1539357908
ssS'packet-bat.c'
p3826
(dp3827
g3
(lp3828
sg5
(lp3829
S'proto_register_bat'
p3830
asg8
(lp3831
S'proto_reg_handoff_bat'
p3832
asg11
I1539357813
ssS'packet-fcct.c'
p3833
(dp3834
g3
(lp3835
sg5
(lp3836
S'proto_register_fcct'
p3837
asg8
(lp3838
S'proto_reg_handoff_fcct'
p3839
asg11
I1539357652
ssS'packet-x29.c'
p3840
(dp3841
g3
(lp3842
sg5
(lp3843
S'proto_register_x29'
p3844
asg8
(lp3845
S'proto_reg_handoff_x29'
p3846
asg11
I1539357804
ssS'packet-aim-translate.c'
p3847
(dp3848
g3
(lp3849
sg5
(lp3850
S'proto_register_aim_translate'
p3851
asg8
(lp3852
S'proto_reg_handoff_aim_translate'
p3853
asg11
I1539357825
ssS'packet-ipx.c'
p3854
(dp3855
g3
(lp3856
sg5
(lp3857
S'proto_register_ipx'
p3858
asg8
(lp3859
S'proto_reg_handoff_ipx'
p3860
asg11
I1539357677
ssS'packet-mq.c'
p3861
(dp3862
g3
(lp3863
sg5
(lp3864
S'proto_register_mq'
p3865
asg8
(lp3866
S'proto_reg_handoff_mq'
p3867
asg11
I1539357778
ssS'packet-fefd.c'
p3868
(dp3869
g3
(lp3870
sg5
(lp3871
S'proto_register_fefd'
p3872
asg8
(lp3873
S'proto_reg_handoff_fefd'
p3874
asg11
I1539357799
ssS'packet-rmt-common.c'
p3875
(dp3876
g3
(lp3877
sg5
(lp3878
sg8
(lp3879
sg11
I1539357748
ssS'packet-ipp.c'
p3880
(dp3881
g3
(lp3882
sg5
(lp3883
S'proto_register_ipp'
p3884
asg8
(lp3885
S'proto_reg_handoff_ipp'
p3886
asg11
I1539357859
ssS'packet-m2ua.c'
p3887
(dp3888
g3
(lp3889
sg5
(lp3890
S'proto_register_m2ua'
p3891
asg8
(lp3892
S'proto_reg_handoff_m2ua'
p3893
asg11
I1539357716
ssS'packet-spnego.c'
p3894
(dp3895
g3
(lp3896
sg5
(lp3897
S'proto_register_spnego'
p3898
asg8
(lp3899
S'proto_reg_handoff_spnego'
p3900
asg11
I1539357809
ssS'packet-msnip.c'
p3901
(dp3902
g3
(lp3903
sg5
(lp3904
S'proto_register_msnip'
p3905
asg8
(lp3906
sg11
I1539357849
ssS'packet-vicp.c'
p3907
(dp3908
g3
(lp3909
sg5
(lp3910
S'proto_register_vicp'
p3911
asg8
(lp3912
S'proto_reg_handoff_vicp'
p3913
asg11
I1539357800
ssS'packet-dcerpc-rs_misc.c'
p3914
(dp3915
g3
(lp3916
sg5
(lp3917
S'proto_register_rs_misc'
p3918
asg8
(lp3919
S'proto_reg_handoff_rs_misc'
p3920
asg11
I1539357663
ssS'packet-k12.c'
p3921
(dp3922
g3
(lp3923
sg5
(lp3924
S'proto_register_k12'
p3925
asg8
(lp3926
S'proto_reg_handoff_k12'
p3927
asg11
I1539357823
ssS'packet-dcerpc-ubikvote.c'
p3928
(dp3929
g3
(lp3930
sg5
(lp3931
S'proto_register_ubikvote'
p3932
asg8
(lp3933
S'proto_reg_handoff_ubikvote'
p3934
asg11
I1539357765
ssS'packet-s1ap.c'
p3935
(dp3936
g3
(lp3937
sg5
(lp3938
S'proto_register_s1ap'
p3939
asg8
(lp3940
S'proto_reg_handoff_s1ap'
p3941
asg11
I1539358052
ssS'packet-yppasswd.c'
p3942
(dp3943
g3
(lp3944
sg5
(lp3945
S'proto_register_yppasswd'
p3946
asg8
(lp3947
S'proto_reg_handoff_yppasswd'
p3948
asg11
I1539357652
ssS'packet-ncs.c'
p3949
(dp3950
g3
(lp3951
sg5
(lp3952
S'proto_register_ncs'
p3953
asg8
(lp3954
S'proto_reg_handoff_ncs'
p3955
asg11
I1539357727
ssS'packet-m2tp.c'
p3956
(dp3957
g3
(lp3958
sg5
(lp3959
S'proto_register_m2tp'
p3960
asg8
(lp3961
S'proto_reg_handoff_m2tp'
p3962
asg11
I1539357679
ssS'packet-calcappprotocol.c'
p3963
(dp3964
g3
(lp3965
sg5
(lp3966
S'proto_register_calcappprotocol'
p3967
asg8
(lp3968
S'proto_reg_handoff_calcappprotocol'
p3969
asg11
I1539357880
ssS'packet-smrse.c'
p3970
(dp3971
g3
(lp3972
sg5
(lp3973
S'proto_register_smrse'
p3974
asg8
(lp3975
S'proto_reg_handoff_smrse'
p3976
asg11
I1539357733
ssS'packet-radius_packetcable.c'
p3977
(dp3978
g3
(lp3979
sg5
(lp3980
S'proto_register_packetcable'
p3981
asg8
(lp3982
S'proto_reg_handoff_packetcable'
p3983
asg11
I1539357871
ssS'packet-pkix1implicit.c'
p3984
(dp3985
g3
(lp3986
sg5
(lp3987
S'proto_register_pkix1implicit'
p3988
asg8
(lp3989
S'proto_reg_handoff_pkix1implicit'
p3990
asg11
I1539357839
ssS'packet-aim-admin.c'
p3991
(dp3992
g3
(lp3993
sg5
(lp3994
S'proto_register_aim_admin'
p3995
asg8
(lp3996
S'proto_reg_handoff_aim_admin'
p3997
asg11
I1539357657
ssS'packet-ipsec.c'
p3998
(dp3999
g3
(lp4000
sg5
(lp4001
S'proto_register_ipsec'
p4002
asg8
(lp4003
S'proto_reg_handoff_ipsec'
p4004
asg11
I1539357906
ssS'packet-q932-ros.c'
p4005
(dp4006
g3
(lp4007
sg5
(lp4008
S'proto_register_q932_ros'
p4009
asg8
(lp4010
S'proto_reg_handoff_q932_ros'
p4011
asg11
I1539357678
ssS'packet-h283.c'
p4012
(dp4013
g3
(lp4014
sg5
(lp4015
S'proto_register_h283'
p4016
asg8
(lp4017
S'proto_reg_handoff_h283'
p4018
asg11
I1539357840
ssS'packet-tzsp.c'
p4019
(dp4020
g3
(lp4021
sg5
(lp4022
S'proto_register_tzsp'
p4023
asg8
(lp4024
S'proto_reg_handoff_tzsp'
p4025
asg11
I1539357648
ssS'packet-fcsb3.c'
p4026
(dp4027
g3
(lp4028
sg5
(lp4029
S'proto_register_fcsbccs'
p4030
asg8
(lp4031
S'proto_reg_handoff_fcsbccs'
p4032
asg11
I1539357664
ssS'packet-ptp.c'
p4033
(dp4034
g3
(lp4035
sg5
(lp4036
S'proto_register_ptp'
p4037
asg8
(lp4038
S'proto_reg_handoff_ptp'
p4039
asg11
I1539357968
ssS'packet-rgmp.c'
p4040
(dp4041
g3
(lp4042
sg5
(lp4043
S'proto_register_rgmp'
p4044
asg8
(lp4045
sg11
I1539357848
ssS'packet-3com-njack.c'
p4046
(dp4047
g3
(lp4048
sg5
(lp4049
S'proto_register_njack'
p4050
asg8
(lp4051
S'proto_reg_handoff_njack'
p4052
asg11
I1539357812
ssS'packet-gssapi.c'
p4053
(dp4054
g3
(lp4055
sg5
(lp4056
S'proto_register_gssapi'
p4057
asg8
(lp4058
S'proto_reg_handoff_gssapi'
p4059
asg11
I1539357885
ssS'packet-loop.c'
p4060
(dp4061
g3
(lp4062
sg5
(lp4063
S'proto_register_loop'
p4064
asg8
(lp4065
S'proto_reg_handoff_loop'
p4066
asg11
I1539357718
ssS'packet-ayiya.c'
p4067
(dp4068
g3
(lp4069
sg5
(lp4070
S'proto_register_ayiya'
p4071
asg8
(lp4072
S'proto_reg_handoff_ayiya'
p4073
asg11
I1539357730
ssS'packet-synergy.c'
p4074
(dp4075
g3
(lp4076
sg5
(lp4077
S'proto_register_synergy'
p4078
asg8
(lp4079
S'proto_reg_handoff_synergy'
p4080
asg11
I1539357662
ssS'packet-iana-oui.c'
p4081
(dp4082
g3
(lp4083
sg5
(lp4084
S'proto_register_iana_oui'
p4085
asg8
(lp4086
sg11
I1539357669
ssS'packet-fcdns.c'
p4087
(dp4088
g3
(lp4089
sg5
(lp4090
S'proto_register_fcdns'
p4091
asg8
(lp4092
S'proto_reg_handoff_fcdns'
p4093
asg11
I1539357755
ssS'packet-pw-satop.c'
p4094
(dp4095
g3
(lp4096
sg5
(lp4097
S'proto_register_pw_satop'
p4098
asg8
(lp4099
S'proto_reg_handoff_pw_satop'
p4100
asg11
I1539357772
ssS'packet-exec.c'
p4101
(dp4102
g3
(lp4103
sg5
(lp4104
S'proto_register_exec'
p4105
asg8
(lp4106
S'proto_reg_handoff_exec'
p4107
asg11
I1539357693
ssS'packet-ieee8021ah.c'
p4108
(dp4109
g3
(lp4110
sg5
(lp4111
S'proto_register_ieee8021ah'
p4112
asg8
(lp4113
S'proto_reg_handoff_ieee8021ah'
p4114
asg11
I1539357860
ssS'packet-rip.c'
p4115
(dp4116
g3
(lp4117
sg5
(lp4118
S'proto_register_rip'
p4119
asg8
(lp4120
S'proto_reg_handoff_rip'
p4121
asg11
I1539357714
ssS'packet-esis.c'
p4122
(dp4123
g3
(lp4124
sg5
(lp4125
S'proto_register_esis'
p4126
asg8
(lp4127
S'proto_reg_handoff_esis'
p4128
asg11
I1539357712
ssS'packet-netsync.c'
p4129
(dp4130
g3
(lp4131
sg5
(lp4132
S'proto_register_netsync'
p4133
asg8
(lp4134
S'proto_reg_handoff_netsync'
p4135
asg11
I1539357666
ssS'packet-sap.c'
p4136
(dp4137
g3
(lp4138
sg5
(lp4139
S'proto_register_sap'
p4140
asg8
(lp4141
S'proto_reg_handoff_sap'
p4142
asg11
I1539357885
ssS'packet-distcc.c'
p4143
(dp4144
g3
(lp4145
sg5
(lp4146
S'proto_register_distcc'
p4147
asg8
(lp4148
S'proto_reg_handoff_distcc'
p4149
asg11
I1539357860
ssS'packet-juniper.c'
p4150
(dp4151
g3
(lp4152
sg5
(lp4153
S'proto_register_juniper'
p4154
asg8
(lp4155
S'proto_reg_handoff_juniper'
p4156
asg11
I1539357775
ssS'packet-vtp.c'
p4157
(dp4158
g3
(lp4159
sg5
(lp4160
S'proto_register_vtp'
p4161
asg8
(lp4162
S'proto_reg_handoff_vtp'
p4163
asg11
I1539357774
ssS'packet-e212.c'
p4164
(dp4165
g3
(lp4166
sg5
(lp4167
S'proto_register_e212'
p4168
asg8
(lp4169
sg11
I1539357645
ssS'packet-dsi.c'
p4170
(dp4171
g3
(lp4172
sg5
(lp4173
S'proto_register_dsi'
p4174
asg8
(lp4175
S'proto_reg_handoff_dsi'
p4176
asg11
I1539357775
ssS'packet-dcerpc-rs_prop_attr.c'
p4177
(dp4178
g3
(lp4179
sg5
(lp4180
S'proto_register_rs_prop_attr'
p4181
asg8
(lp4182
S'proto_reg_handoff_rs_prop_attr'
p4183
asg11
I1539357706
ssS'packet-null.c'
p4184
(dp4185
g3
(lp4186
sg5
(lp4187
S'proto_register_null'
p4188
asg8
(lp4189
S'proto_reg_handoff_null'
p4190
asg11
I1539357721
ssS'packet-lte-rrc.c'
p4191
(dp4192
g3
(lp4193
sg5
(lp4194
S'proto_register_lte_rrc'
p4195
asg8
(lp4196
S'proto_reg_handoff_lte_rrc'
p4197
asg11
I1539358095
ssS'packet-ocsp.c'
p4198
(dp4199
g3
(lp4200
sg5
(lp4201
S'proto_register_ocsp'
p4202
asg8
(lp4203
S'proto_reg_handoff_ocsp'
p4204
asg11
I1539357921
ssS'packet-nbd.c'
p4205
(dp4206
g3
(lp4207
sg5
(lp4208
S'proto_register_nbd'
p4209
asg8
(lp4210
S'proto_reg_handoff_nbd'
p4211
asg11
I1539357745
ssS'packet-dcerpc-rfr.c'
p4212
(dp4213
g3
(lp4214
sg5
(lp4215
S'proto_register_dcerpc_rfr'
p4216
asg8
(lp4217
S'proto_reg_handoff_dcerpc_rfr'
p4218
asg11
I1539357790
ssS'packet-isis-clv.c'
p4219
(dp4220
g3
(lp4221
sg5
(lp4222
sg8
(lp4223
sg11
I1539357660
ssS'packet-ansi_map.c'
p4224
(dp4225
g3
(lp4226
sg5
(lp4227
S'proto_register_ansi_map'
p4228
asg8
(lp4229
S'proto_reg_handoff_ansi_map'
p4230
asg11
I1539357961
ssS'packet-ospf.c'
p4231
(dp4232
g3
(lp4233
sg5
(lp4234
S'proto_register_ospf'
p4235
asg8
(lp4236
S'proto_reg_handoff_ospf'
p4237
asg11
I1539357883
ssS'packet-dtp.c'
p4238
(dp4239
g3
(lp4240
sg5
(lp4241
S'proto_register_dtp'
p4242
asg8
(lp4243
S'proto_reg_handoff_dtp'
p4244
asg11
I1539357831
ssS'packet-h248_7.c'
p4245
(dp4246
g3
(lp4247
sg5
(lp4248
S'proto_register_h248_7'
p4249
asg8
(lp4250
sg11
I1539357889
ssS'packet-manolito.c'
p4251
(dp4252
g3
(lp4253
sg5
(lp4254
S'proto_register_manolito'
p4255
asg8
(lp4256
S'proto_reg_handoff_manolito'
p4257
asg11
I1539357890
ssS'packet-vcdu.c'
p4258
(dp4259
g3
(lp4260
sg5
(lp4261
S'proto_register_vcdu'
p4262
asg8
(lp4263
S'proto_reg_handoff_vcdu'
p4264
asg11
I1539357690
ssS'packet-enttec.c'
p4265
(dp4266
g3
(lp4267
sg5
(lp4268
S'proto_register_enttec'
p4269
asg8
(lp4270
S'proto_reg_handoff_enttec'
p4271
asg11
I1539357725
ssS'packet-dcerpc-wzcsvc.c'
p4272
(dp4273
g3
(lp4274
sg5
(lp4275
S'proto_register_dcerpc_wzcsvc'
p4276
asg8
(lp4277
S'proto_reg_handoff_dcerpc_wzcsvc'
p4278
asg11
I1539357891
ssS'packet-2dparityfec.c'
p4279
(dp4280
g3
(lp4281
sg5
(lp4282
S'proto_register_2dparityfec'
p4283
asg8
(lp4284
S'proto_reg_handoff_2dparityfec'
p4285
asg11
I1539357868
ssS'packet-tuxedo.c'
p4286
(dp4287
g3
(lp4288
sg5
(lp4289
S'proto_register_tuxedo'
p4290
asg8
(lp4291
S'proto_reg_handoff_tuxedo'
p4292
asg11
I1539357685
ssS'packet-dcerpc-rs_repmgr.c'
p4293
(dp4294
g3
(lp4295
sg5
(lp4296
S'proto_register_rs_repmgr'
p4297
asg8
(lp4298
S'proto_reg_handoff_rs_repmgr'
p4299
asg11
I1539357903
ssS'packet-mesh.c'
p4300
(dp4301
g3
(lp4302
sg5
(lp4303
S'proto_register_mesh'
p4304
asg8
(lp4305
sg11
I1539357641
ssS'packet-hilscher.c'
p4306
(dp4307
g3
(lp4308
sg5
(lp4309
S'proto_register_hilscher'
p4310
asg8
(lp4311
S'proto_reg_handoff_hilscher'
p4312
asg11
I1539357765
ssS'packet-aim-buddylist.c'
p4313
(dp4314
g3
(lp4315
sg5
(lp4316
S'proto_register_aim_buddylist'
p4317
asg8
(lp4318
S'proto_reg_handoff_aim_buddylist'
p4319
asg11
I1539357827
ssS'packet-igap.c'
p4320
(dp4321
g3
(lp4322
sg5
(lp4323
S'proto_register_igap'
p4324
asg8
(lp4325
sg11
I1539357813
ssS'packet-cisco-sm.c'
p4326
(dp4327
g3
(lp4328
sg5
(lp4329
S'proto_register_sm'
p4330
asg8
(lp4331
S'proto_reg_handoff_sm'
p4332
asg11
I1539357840
ssS'packet-dcerpc-krb5rpc.c'
p4333
(dp4334
g3
(lp4335
sg5
(lp4336
S'proto_register_krb5rpc'
p4337
asg8
(lp4338
S'proto_reg_handoff_krb5rpc'
p4339
asg11
I1539357855
ssS'packet-evrc.c'
p4340
(dp4341
g3
(lp4342
sg5
(lp4343
S'proto_register_evrc'
p4344
asg8
(lp4345
S'proto_reg_handoff_evrc'
p4346
asg11
I1539357763
ssS'packet-dcerpc.c'
p4347
(dp4348
g3
(lp4349
sg5
(lp4350
S'proto_register_dcerpc'
p4351
asg8
(lp4352
S'proto_reg_handoff_dcerpc'
p4353
asg11
I1539357852
ssS'packet-pana.c'
p4354
(dp4355
g3
(lp4356
sg5
(lp4357
S'proto_register_pana'
p4358
asg8
(lp4359
S'proto_reg_handoff_pana'
p4360
asg11
I1539357724
ssS'packet-pw-fr.c'
p4361
(dp4362
g3
(lp4363
sg5
(lp4364
S'proto_register_pw_fr'
p4365
asg8
(lp4366
S'proto_reg_handoff_pw_fr'
p4367
asg11
I1539357820
ssS'packet-t125.c'
p4368
(dp4369
g3
(lp4370
sg5
(lp4371
S'proto_register_t125'
p4372
asg8
(lp4373
S'proto_reg_handoff_t125'
p4374
asg11
I1539357683
ssS'packet-cisco-oui.c'
p4375
(dp4376
g3
(lp4377
sg5
(lp4378
S'proto_register_cisco_oui'
p4379
asg8
(lp4380
sg11
I1539357794
ssS'packet-tftp.c'
p4381
(dp4382
g3
(lp4383
sg5
(lp4384
S'proto_register_tftp'
p4385
asg8
(lp4386
S'proto_reg_handoff_tftp'
p4387
asg11
I1539357660
ssS'packet-ms-mms.c'
p4388
(dp4389
g3
(lp4390
sg5
(lp4391
S'proto_register_msmms'
p4392
asg8
(lp4393
S'proto_reg_handoff_msmms_command'
p4394
asg11
I1539357700
ssS'packet-tivoconnect.c'
p4395
(dp4396
g3
(lp4397
sg5
(lp4398
S'proto_register_tivoconnect'
p4399
asg8
(lp4400
S'proto_reg_handoff_tivoconnect'
p4401
asg11
I1539357688
ssS'packet-dec-bpdu.c'
p4402
(dp4403
g3
(lp4404
sg5
(lp4405
S'proto_register_dec_bpdu'
p4406
asg8
(lp4407
S'proto_reg_handoff_dec_bpdu'
p4408
asg11
I1539357746
ssS'packet-data.c'
p4409
(dp4410
g3
(lp4411
sg5
(lp4412
S'proto_register_data'
p4413
asg8
(lp4414
sg11
I1539357699
ssS'packet-ldss.c'
p4415
(dp4416
g3
(lp4417
sg5
(lp4418
S'proto_register_ldss'
p4419
asg8
(lp4420
S'proto_reg_handoff_ldss'
p4421
asg11
I1539357655
ssS'packet-ethertype.c'
p4422
(dp4423
g3
(lp4424
sg5
(lp4425
S'proto_register_ethertype'
p4426
asg8
(lp4427
S'proto_reg_handoff_ethertype'
p4428
asg11
I1539357656
ssS'packet-pcap.c'
p4429
(dp4430
g3
(lp4431
sg5
(lp4432
S'proto_register_pcap'
p4433
asg8
(lp4434
S'proto_reg_handoff_pcap'
p4435
asg11
I1539358063
ssS'packet-rmt-alc.c'
p4436
(dp4437
g3
(lp4438
sg5
(lp4439
S'proto_register_alc'
p4440
asg8
(lp4441
S'proto_reg_handoff_alc'
p4442
asg11
I1539357649
ssS'packet-starteam.c'
p4443
(dp4444
g3
(lp4445
sg5
(lp4446
S'proto_register_starteam'
p4447
asg8
(lp4448
S'proto_reg_handoff_starteam'
p4449
asg11
I1539357830
ssS'packet-wps.c'
p4450
(dp4451
g3
(lp4452
sg5
(lp4453
S'proto_register_wps'
p4454
asg8
(lp4455
sg11
I1539357698
ssS'packet-zbee-aps.c'
p4456
(dp4457
g3
(lp4458
sg5
(lp4459
S'proto_register_zbee_aps'
p4460
asg8
(lp4461
S'proto_reg_handoff_zbee_aps'
p4462
asg11
I1539357703
ssS'packet-snmp.c'
p4463
(dp4464
g3
(lp4465
sg5
(lp4466
S'proto_register_snmp'
p4467
aS'proto_register_smux'
p4468
asg8
(lp4469
S'proto_reg_handoff_snmp'
p4470
aS'proto_reg_handoff_smux'
p4471
asg11
I1539357746
ssS'packet-mip.c'
p4472
(dp4473
g3
(lp4474
sg5
(lp4475
S'proto_register_mip'
p4476
asg8
(lp4477
S'proto_reg_handoff_mip'
p4478
asg11
I1539357765
ssS'packet-ppp.c'
p4479
(dp4480
g3
(lp4481
sg5
(lp4482
S'proto_register_ppp_raw_hdlc'
p4483
aS'proto_register_ppp'
p4484
aS'proto_register_mp'
p4485
aS'proto_register_lcp'
p4486
aS'proto_register_ipcp'
p4487
aS'proto_register_bcp'
p4488
aS'proto_register_osicp'
p4489
aS'proto_register_ccp'
p4490
aS'proto_register_cbcp'
p4491
aS'proto_register_bacp'
p4492
aS'proto_register_bap'
p4493
aS'proto_register_comp_data'
p4494
aS'proto_register_pap'
p4495
aS'proto_register_chap'
p4496
aS'proto_register_pppmuxcp'
p4497
aS'proto_register_pppmux'
p4498
aS'proto_register_mplscp'
p4499
aS'proto_register_cdpcp'
p4500
aS'proto_register_ipv6cp'
p4501
aS'proto_register_iphc_crtp'
p4502
asg8
(lp4503
S'proto_reg_handoff_ppp_raw_hdlc'
p4504
aS'proto_reg_handoff_ppp'
p4505
aS'proto_reg_handoff_mp'
p4506
aS'proto_reg_handoff_lcp'
p4507
aS'proto_reg_handoff_ipcp'
p4508
aS'proto_reg_handoff_bcp'
p4509
aS'proto_reg_handoff_osicp'
p4510
aS'proto_reg_handoff_ccp'
p4511
aS'proto_reg_handoff_cbcp'
p4512
aS'proto_reg_handoff_bacp'
p4513
aS'proto_reg_handoff_bap'
p4514
aS'proto_reg_handoff_comp_data'
p4515
aS'proto_reg_handoff_pap'
p4516
aS'proto_reg_handoff_chap'
p4517
aS'proto_reg_handoff_pppmuxcp'
p4518
aS'proto_reg_handoff_pppmux'
p4519
aS'proto_reg_handoff_mplscp'
p4520
aS'proto_reg_handoff_cdpcp'
p4521
aS'proto_reg_handoff_ipv6cp'
p4522
aS'proto_reg_handoff_iphc_crtp'
p4523
asg11
I1539357718
ssS'packet-extreme.c'
p4524
(dp4525
g3
(lp4526
sg5
(lp4527
S'proto_register_edp'
p4528
aS'proto_register_extreme_oui'
p4529
asg8
(lp4530
S'proto_reg_handoff_edp'
p4531
asg11
I1539357668
ssS'packet-alcap.c'
p4532
(dp4533
g3
(lp4534
sg5
(lp4535
S'proto_register_alcap'
p4536
asg8
(lp4537
S'proto_reg_handoff_alcap'
p4538
asg11
I1539357921
ssS'packet-mp2t.c'
p4539
(dp4540
g3
(lp4541
sg5
(lp4542
S'proto_register_mp2t'
p4543
asg8
(lp4544
S'proto_reg_handoff_mp2t'
p4545
asg11
I1539357666
ssS'packet-enrp.c'
p4546
(dp4547
g3
(lp4548
sg5
(lp4549
S'proto_register_enrp'
p4550
asg8
(lp4551
S'proto_reg_handoff_enrp'
p4552
asg11
I1539357893
ssS'packet-slsk.c'
p4553
(dp4554
g3
(lp4555
sg5
(lp4556
S'proto_register_slsk'
p4557
asg8
(lp4558
S'proto_reg_handoff_slsk'
p4559
asg11
I1539357939
ssS'packet-smb-mailslot.c'
p4560
(dp4561
g3
(lp4562
sg5
(lp4563
S'proto_register_smb_mailslot'
p4564
asg8
(lp4565
S'proto_reg_handoff_smb_mailslot'
p4566
asg11
I1539357731
ssS'packet-zebra.c'
p4567
(dp4568
g3
(lp4569
sg5
(lp4570
S'proto_register_zebra'
p4571
asg8
(lp4572
S'proto_reg_handoff_zebra'
p4573
asg11
I1539357711
ssS'packet-rtp-events.c'
p4574
(dp4575
g3
(lp4576
sg5
(lp4577
S'proto_register_rtp_events'
p4578
asg8
(lp4579
S'proto_reg_handoff_rtp_events'
p4580
asg11
I1539357871
ssS'packet-fclctl.c'
p4581
(dp4582
g3
(lp4583
sg5
(lp4584
sg8
(lp4585
sg11
I1539357768
ssS'packet-pcli.c'
p4586
(dp4587
g3
(lp4588
sg5
(lp4589
S'proto_register_pcli'
p4590
asg8
(lp4591
S'proto_reg_handoff_pcli'
p4592
asg11
I1539357776
ssS'packet-dua.c'
p4593
(dp4594
g3
(lp4595
sg5
(lp4596
S'proto_register_dua'
p4597
asg8
(lp4598
S'proto_reg_handoff_dua'
p4599
asg11
I1539357786
ssS'packet-dcerpc-rs_prop_pgo.c'
p4600
(dp4601
g3
(lp4602
sg5
(lp4603
S'proto_register_rs_prop_pgo'
p4604
asg8
(lp4605
S'proto_reg_handoff_rs_prop_pgo'
p4606
asg11
I1539357661
ssS'packet-rsh.c'
p4607
(dp4608
g3
(lp4609
sg5
(lp4610
S'proto_register_rsh'
p4611
asg8
(lp4612
S'proto_reg_handoff_rsh'
p4613
asg11
I1539357716
ssS'packet-aim-location.c'
p4614
(dp4615
g3
(lp4616
sg5
(lp4617
S'proto_register_aim_location'
p4618
asg8
(lp4619
S'proto_reg_handoff_aim_location'
p4620
asg11
I1539357792
ssS'packet-lapb.c'
p4621
(dp4622
g3
(lp4623
sg5
(lp4624
S'proto_register_lapb'
p4625
asg8
(lp4626
S'proto_reg_handoff_lapb'
p4627
asg11
I1539357920
ssS'packet-ip.c'
p4628
(dp4629
g3
(lp4630
sg5
(lp4631
S'proto_register_ip'
p4632
aS'proto_register_icmp'
p4633
asg8
(lp4634
S'proto_reg_handoff_ip'
p4635
aS'proto_reg_handoff_icmp'
p4636
asg11
I1539357965
ssS'packet-msproxy.c'
p4637
(dp4638
g3
(lp4639
sg5
(lp4640
S'proto_register_msproxy'
p4641
asg8
(lp4642
S'proto_reg_handoff_msproxy'
p4643
asg11
I1539357672
ssS'packet-cmpp.c'
p4644
(dp4645
g3
(lp4646
sg5
(lp4647
S'proto_register_cmpp'
p4648
asg8
(lp4649
S'proto_reg_handoff_cmpp'
p4650
asg11
I1539357801
ssS'packet-q932.c'
p4651
(dp4652
g3
(lp4653
sg5
(lp4654
S'proto_register_q932'
p4655
asg8
(lp4656
S'proto_reg_handoff_q932'
p4657
asg11
I1539357763
ssS'packet-dcerpc-conv.c'
p4658
(dp4659
g3
(lp4660
sg5
(lp4661
S'proto_register_conv'
p4662
asg8
(lp4663
S'proto_reg_handoff_conv'
p4664
asg11
I1539357828
ssS'packet-prp.c'
p4665
(dp4666
g3
(lp4667
sg5
(lp4668
S'proto_register_prp'
p4669
asg8
(lp4670
S'proto_reg_handoff_prp'
p4671
asg11
I1539357686
ssS'packet-mysql.c'
p4672
(dp4673
g3
(lp4674
sg5
(lp4675
S'proto_register_mysql'
p4676
asg8
(lp4677
S'proto_reg_handoff_mysql'
p4678
asg11
I1539357879
ssS'packet-dcom.c'
p4679
(dp4680
g3
(lp4681
sg5
(lp4682
S'proto_register_dcom'
p4683
asg8
(lp4684
S'proto_reg_handoff_dcom'
p4685
asg11
I1539357800
ssS'packet-rmcp.c'
p4686
(dp4687
g3
(lp4688
sg5
(lp4689
S'proto_register_rmcp'
p4690
aS'proto_register_rsp'
p4691
asg8
(lp4692
S'proto_reg_handoff_rmcp'
p4693
aS'proto_reg_handoff_rsp'
p4694
asg11
I1539357769
ssS'packet-per.c'
p4695
(dp4696
g3
(lp4697
sg5
(lp4698
S'proto_register_per'
p4699
asg8
(lp4700
S'proto_reg_handoff_per'
p4701
asg11
I1539357705
ssS'packet-dcom-dispatch.c'
p4702
(dp4703
g3
(lp4704
sg5
(lp4705
S'proto_register_dcom_dispatch'
p4706
asg8
(lp4707
S'proto_reg_handoff_dcom_dispatch'
p4708
asg11
I1539357703
ssS'packet-infiniband.c'
p4709
(dp4710
g3
(lp4711
sg5
(lp4712
S'proto_register_infiniband'
p4713
asg8
(lp4714
S'proto_reg_handoff_infiniband'
p4715
asg11
I1539357814
ssS'packet-lsc.c'
p4716
(dp4717
g3
(lp4718
sg5
(lp4719
S'proto_register_lsc'
p4720
asg8
(lp4721
S'proto_reg_handoff_lsc'
p4722
asg11
I1539357678
ssS'packet-rmp.c'
p4723
(dp4724
g3
(lp4725
sg5
(lp4726
S'proto_register_rmp'
p4727
asg8
(lp4728
S'proto_reg_handoff_rmp'
p4729
asg11
I1539357768
ssS'packet-iax2.c'
p4730
(dp4731
g3
(lp4732
sg5
(lp4733
S'proto_register_iax2'
p4734
asg8
(lp4735
S'proto_reg_handoff_iax2'
p4736
asg11
I1539357924
ssS'packet-memcache.c'
p4737
(dp4738
g3
(lp4739
sg5
(lp4740
S'proto_register_memcache'
p4741
asg8
(lp4742
S'proto_reg_handoff_memcache'
p4743
asg11
I1539357689
ssS'packet-aim-icq.c'
p4744
(dp4745
g3
(lp4746
sg5
(lp4747
S'proto_register_aim_icq'
p4748
asg8
(lp4749
S'proto_reg_handoff_aim_icq'
p4750
asg11
I1539357830
ssS'packet-usb.c'
p4751
(dp4752
g3
(lp4753
sg5
(lp4754
S'proto_register_usb'
p4755
asg8
(lp4756
S'proto_reg_handoff_usb'
p4757
asg11
I1539357797
ssS'packet-rmt-norm.c'
p4758
(dp4759
g3
(lp4760
sg5
(lp4761
S'proto_register_norm'
p4762
asg8
(lp4763
S'proto_reg_handoff_norm'
p4764
asg11
I1539357653
ssS'packet-sip.c'
p4765
(dp4766
g3
(lp4767
sg5
(lp4768
S'proto_register_sip'
p4769
asg8
(lp4770
S'proto_reg_handoff_sip'
p4771
asg11
I1539357881
ssS'packet-tte-pcf.c'
p4772
(dp4773
g3
(lp4774
sg5
(lp4775
S'proto_register_tte_pcf'
p4776
asg8
(lp4777
S'proto_reg_handoff_tte_pcf'
p4778
asg11
I1539357644
ssS'packet-dvmrp.c'
p4779
(dp4780
g3
(lp4781
sg5
(lp4782
S'proto_register_dvmrp'
p4783
asg8
(lp4784
sg11
I1539357757
ssS'packet-cfm.c'
p4785
(dp4786
g3
(lp4787
sg5
(lp4788
S'proto_register_cfm'
p4789
asg8
(lp4790
S'proto_reg_handoff_cfm'
p4791
asg11
I1539357792
ssS'packet-crmf.c'
p4792
(dp4793
g3
(lp4794
sg5
(lp4795
S'proto_register_crmf'
p4796
asg8
(lp4797
S'proto_reg_handoff_crmf'
p4798
asg11
I1539357863
ssS'packet-linx.c'
p4799
(dp4800
g3
(lp4801
sg5
(lp4802
S'proto_register_linx'
p4803
asg8
(lp4804
S'proto_reg_handoff_linx'
p4805
asg11
I1539357811
ssS'packet-sll.c'
p4806
(dp4807
g3
(lp4808
sg5
(lp4809
S'proto_register_sll'
p4810
asg8
(lp4811
S'proto_reg_handoff_sll'
p4812
asg11
I1539357646
ssS'packet-fmp_notify.c'
p4813
(dp4814
g3
(lp4815
sg5
(lp4816
S'proto_register_fmp_notify'
p4817
asg8
(lp4818
S'proto_reg_handoff_fmp_notify'
p4819
asg11
I1539357730
ssS'packet-socks.c'
p4820
(dp4821
g3
(lp4822
sg5
(lp4823
S'proto_register_socks'
p4824
asg8
(lp4825
S'proto_reg_handoff_socks'
p4826
asg11
I1539357760
ssS'packet-stat-notify.c'
p4827
(dp4828
g3
(lp4829
sg5
(lp4830
S'proto_register_statnotify'
p4831
asg8
(lp4832
S'proto_reg_handoff_statnotify'
p4833
asg11
I1539357655
ssS'packet-quake.c'
p4834
(dp4835
g3
(lp4836
sg5
(lp4837
S'proto_register_quake'
p4838
asg8
(lp4839
S'proto_reg_handoff_quake'
p4840
asg11
I1539357656
ssS'packet-portmap.c'
p4841
(dp4842
g3
(lp4843
sg5
(lp4844
S'proto_register_portmap'
p4845
asg8
(lp4846
S'proto_reg_handoff_portmap'
p4847
asg11
I1539357771
ssS'packet-h460.c'
p4848
(dp4849
g3
(lp4850
sg5
(lp4851
S'proto_register_h460'
p4852
asg8
(lp4853
S'proto_reg_handoff_h460'
p4854
asg11
I1539357927
ssS'packet-bittorrent.c'
p4855
(dp4856
g3
(lp4857
sg5
(lp4858
S'proto_register_bittorrent'
p4859
asg8
(lp4860
S'proto_reg_handoff_bittorrent'
p4861
asg11
I1539357925
ssS'packet-daytime.c'
p4862
(dp4863
g3
(lp4864
sg5
(lp4865
S'proto_register_daytime'
p4866
asg8
(lp4867
S'proto_reg_handoff_daytime'
p4868
asg11
I1539357769
ssS'packet-rudp.c'
p4869
(dp4870
g3
(lp4871
sg5
(lp4872
S'proto_register_rudp'
p4873
asg8
(lp4874
S'proto_reg_handoff_rudp'
p4875
asg11
I1539357826
ssS'packet-aim-oft.c'
p4876
(dp4877
g3
(lp4878
sg5
(lp4879
S'proto_register_aim_oft'
p4880
asg8
(lp4881
S'proto_reg_handoff_aim_oft'
p4882
asg11
I1539357713
ssS'packet-dcerpc-winreg.c'
p4883
(dp4884
g3
(lp4885
sg5
(lp4886
S'proto_register_dcerpc_winreg'
p4887
asg8
(lp4888
S'proto_reg_handoff_dcerpc_winreg'
p4889
asg11
I1539357945
ssS'packet-tpncp.c'
p4890
(dp4891
g3
(lp4892
sg5
(lp4893
S'proto_register_tpncp'
p4894
asg8
(lp4895
S'proto_reg_handoff_tpncp'
p4896
asg11
I1539357928
ssS'packet-iwarp-mpa.c'
p4897
(dp4898
g3
(lp4899
sg5
(lp4900
S'proto_register_mpa'
p4901
asg8
(lp4902
S'proto_reg_handoff_mpa'
p4903
asg11
I1539357812
ssS'packet-fcels.c'
p4904
(dp4905
g3
(lp4906
sg5
(lp4907
S'proto_register_fcels'
p4908
asg8
(lp4909
S'proto_reg_handoff_fcels'
p4910
asg11
I1539357817
ssS'packet-jpeg.c'
p4911
(dp4912
g3
(lp4913
sg5
(lp4914
S'proto_register_jpeg'
p4915
asg8
(lp4916
S'proto_reg_handoff_jpeg'
p4917
asg11
I1539357673
ssS'packet-mmse.c'
p4918
(dp4919
g3
(lp4920
sg5
(lp4921
S'proto_register_mmse'
p4922
asg8
(lp4923
S'proto_reg_handoff_mmse'
p4924
asg11
I1539357863
ssS'packet-wlccp.c'
p4925
(dp4926
g3
(lp4927
sg5
(lp4928
S'proto_register_wlccp'
p4929
aS'proto_register_wlccp_oui'
p4930
asg8
(lp4931
S'proto_reg_handoff_wlccp'
p4932
asg11
I1539357917
ssS'packet-dcerpc-spoolss.c'
p4933
(dp4934
g3
(lp4935
sg5
(lp4936
S'proto_register_dcerpc_spoolss'
p4937
asg8
(lp4938
S'proto_reg_handoff_dcerpc_spoolss'
p4939
asg11
I1539357783
ssS'packet-kismet.c'
p4940
(dp4941
g3
(lp4942
sg5
(lp4943
S'proto_register_kismet'
p4944
asg8
(lp4945
S'proto_reg_handoff_kismet'
p4946
asg11
I1539357775
ssS'packet-dns.c'
p4947
(dp4948
g3
(lp4949
sg5
(lp4950
S'proto_register_dns'
p4951
asg8
(lp4952
S'proto_reg_handoff_dns'
p4953
asg11
I1539357793
ssS'packet-dlm3.c'
p4954
(dp4955
g3
(lp4956
sg5
(lp4957
S'proto_register_dlm3'
p4958
asg8
(lp4959
S'proto_reg_handoff_dlm3'
p4960
asg11
I1539357829
ssS'packet-fc.c'
p4961
(dp4962
g3
(lp4963
sg5
(lp4964
S'proto_register_fc'
p4965
asg8
(lp4966
S'proto_reg_handoff_fc'
p4967
asg11
I1539357668
ssS'packet-aim-bos.c'
p4968
(dp4969
g3
(lp4970
sg5
(lp4971
S'proto_register_aim_bos'
p4972
asg8
(lp4973
S'proto_reg_handoff_aim_bos'
p4974
asg11
I1539357675
ssS'packet-9p.c'
p4975
(dp4976
g3
(lp4977
sg5
(lp4978
S'proto_register_9P'
p4979
asg8
(lp4980
S'proto_reg_handoff_9P'
p4981
asg11
I1539357863
ssS'packet-logotypecertextn.c'
p4982
(dp4983
g3
(lp4984
sg5
(lp4985
S'proto_register_logotypecertextn'
p4986
asg8
(lp4987
S'proto_reg_handoff_logotypecertextn'
p4988
asg11
I1539357711
ssS'packet-imap.c'
p4989
(dp4990
g3
(lp4991
sg5
(lp4992
S'proto_register_imap'
p4993
asg8
(lp4994
S'proto_reg_handoff_imap'
p4995
asg11
I1539357681
ssS'packet-gsm_um.c'
p4996
(dp4997
g3
(lp4998
sg5
(lp4999
S'proto_register_gsm_um'
p5000
asg8
(lp5001
S'proto_reg_handoff_gsm_um'
p5002
asg11
I1539357792
ssS'packet-xyplex.c'
p5003
(dp5004
g3
(lp5005
sg5
(lp5006
S'proto_register_xyplex'
p5007
asg8
(lp5008
S'proto_reg_handoff_xyplex'
p5009
asg11
I1539357660
ssS'packet-atm.c'
p5010
(dp5011
g3
(lp5012
sg5
(lp5013
S'proto_register_atm'
p5014
asg8
(lp5015
S'proto_reg_handoff_atm'
p5016
asg11
I1539357878
ssS'packet-smb2.c'
p5017
(dp5018
g3
(lp5019
sg5
(lp5020
S'proto_register_smb2'
p5021
asg8
(lp5022
S'proto_reg_handoff_smb2'
p5023
asg11
I1539357798
ssS'packet-dcerpc-trksvr.c'
p5024
(dp5025
g3
(lp5026
sg5
(lp5027
S'proto_register_dcerpc_trksvr'
p5028
asg8
(lp5029
S'proto_reg_handoff_dcerpc_trksvr'
p5030
asg11
I1539357719
ssS'packet-dis-pdus.c'
p5031
(dp5032
g3
(lp5033
sg5
(lp5034
sg8
(lp5035
sg11
I1539357875
ssS'packet-scsi-sbc.c'
p5036
(dp5037
g3
(lp5038
sg5
(lp5039
S'proto_register_scsi_sbc'
p5040
asg8
(lp5041
S'proto_reg_handoff_scsi_sbc'
p5042
asg11
I1539357941
ssS'packet-i2c.c'
p5043
(dp5044
g3
(lp5045
sg5
(lp5046
S'proto_register_i2c'
p5047
asg8
(lp5048
S'proto_reg_handoff_i2c'
p5049
asg11
I1539357723
ssS'packet-h221_nonstd.c'
p5050
(dp5051
g3
(lp5052
sg5
(lp5053
S'proto_register_nonstd'
p5054
asg8
(lp5055
S'proto_reg_handoff_nonstd'
p5056
asg11
I1539357825
ssS'packet-ansi_683.c'
p5057
(dp5058
g3
(lp5059
sg5
(lp5060
S'proto_register_ansi_683'
p5061
asg8
(lp5062
S'proto_reg_handoff_ansi_683'
p5063
asg11
I1539357871
ssS'packet-ncp-sss.c'
p5064
(dp5065
g3
(lp5066
sg5
(lp5067
S'proto_register_sss'
p5068
asg8
(lp5069
sg11
I1539357695
ssS'packet-rtcp.c'
p5070
(dp5071
g3
(lp5072
sg5
(lp5073
S'proto_register_rtcp'
p5074
asg8
(lp5075
S'proto_reg_handoff_rtcp'
p5076
asg11
I1539357779
ssS'packet-cops.c'
p5077
(dp5078
g3
(lp5079
sg5
(lp5080
S'proto_register_cops'
p5081
asg8
(lp5082
S'proto_reg_handoff_cops'
p5083
asg11
I1539357905
ssS'packet-dcerpc-dnsserver.c'
p5084
(dp5085
g3
(lp5086
sg5
(lp5087
S'proto_register_dcerpc_dnsserver'
p5088
asg8
(lp5089
S'proto_reg_handoff_dcerpc_dnsserver'
p5090
asg11
I1539357787
ssS'packet-x509sat.c'
p5091
(dp5092
g3
(lp5093
sg5
(lp5094
S'proto_register_x509sat'
p5095
asg8
(lp5096
S'proto_reg_handoff_x509sat'
p5097
asg11
I1539357680
ssS'packet-etherip.c'
p5098
(dp5099
g3
(lp5100
sg5
(lp5101
S'proto_register_etherip'
p5102
asg8
(lp5103
S'proto_reg_handoff_etherip'
p5104
asg11
I1539357775
ssS'packet-iscsi.c'
p5105
(dp5106
g3
(lp5107
sg5
(lp5108
S'proto_register_iscsi'
p5109
asg8
(lp5110
S'proto_reg_handoff_iscsi'
p5111
asg11
I1539357703
ssS'packet-aim-sst.c'
p5112
(dp5113
g3
(lp5114
sg5
(lp5115
S'proto_register_aim_sst'
p5116
asg8
(lp5117
S'proto_reg_handoff_aim_sst'
p5118
asg11
I1539357873
ssS'packet-icp.c'
p5119
(dp5120
g3
(lp5121
sg5
(lp5122
S'proto_register_icp'
p5123
asg8
(lp5124
S'proto_reg_handoff_icp'
p5125
asg11
I1539357697
ssS'packet-fip.c'
p5126
(dp5127
g3
(lp5128
sg5
(lp5129
S'proto_register_fip'
p5130
asg8
(lp5131
S'proto_reg_handoff_fip'
p5132
asg11
I1539357669
ssS'packet-gvrp.c'
p5133
(dp5134
g3
(lp5135
sg5
(lp5136
S'proto_register_gvrp'
p5137
asg8
(lp5138
S'proto_reg_handoff_gvrp'
p5139
asg11
I1539357897
ssS'packet-symantec.c'
p5140
(dp5141
g3
(lp5142
sg5
(lp5143
S'proto_register_symantec'
p5144
asg8
(lp5145
S'proto_reg_handoff_symantec'
p5146
asg11
I1539357784
ssS'packet-h248_q1950.c'
p5147
(dp5148
g3
(lp5149
sg5
(lp5150
S'proto_register_q1950'
p5151
asg8
(lp5152
S'proto_reg_handoff_q1950'
p5153
asg11
I1539357873
ssS'packet-sflow.c'
p5154
(dp5155
g3
(lp5156
sg5
(lp5157
S'proto_register_sflow'
p5158
asg8
(lp5159
S'proto_reg_handoff_sflow'
p5160
asg11
I1539357681
ssS'packet-fix.c'
p5161
(dp5162
g3
(lp5163
sg5
(lp5164
S'proto_register_fix'
p5165
asg8
(lp5166
S'proto_reg_handoff_fix'
p5167
asg11
I1539357767
ssS'packet-mgcp.c'
p5168
(dp5169
g3
(lp5170
sg5
(lp5171
S'proto_register_mgcp'
p5172
asg8
(lp5173
S'proto_reg_handoff_mgcp'
p5174
asg11
I1539357914
ssS'packet-nsrp.c'
p5175
(dp5176
g3
(lp5177
sg5
(lp5178
S'proto_register_nsrp'
p5179
asg8
(lp5180
S'proto_reg_handoff_nsrp'
p5181
asg11
I1539357775
ssS'packet-dcerpc-tkn4int.c'
p5182
(dp5183
g3
(lp5184
sg5
(lp5185
S'proto_register_tkn4int'
p5186
asg8
(lp5187
S'proto_reg_handoff_tkn4int'
p5188
asg11
I1539357732
ssS'packet-winsrepl.c'
p5189
(dp5190
g3
(lp5191
sg5
(lp5192
S'proto_register_winsrepl'
p5193
asg8
(lp5194
S'proto_reg_handoff_winsrepl'
p5195
asg11
I1539357692
ssS'packet-ns_cert_exts.c'
p5196
(dp5197
g3
(lp5198
sg5
(lp5199
S'proto_register_ns_cert_exts'
p5200
asg8
(lp5201
S'proto_reg_handoff_ns_cert_exts'
p5202
asg11
I1539357686
ssS'packet-rrc.c'
p5203
(dp5204
g3
(lp5205
sg5
(lp5206
S'proto_register_rrc'
p5207
asg8
(lp5208
S'proto_reg_handoff_rrc'
p5209
asg11
I1539358906
ssS'packet-ypbind.c'
p5210
(dp5211
g3
(lp5212
sg5
(lp5213
S'proto_register_ypbind'
p5214
asg8
(lp5215
S'proto_reg_handoff_ypbind'
p5216
asg11
I1539357696
ssS'packet-p7.c'
p5217
(dp5218
g3
(lp5219
sg5
(lp5220
S'proto_register_p7'
p5221
asg8
(lp5222
S'proto_reg_handoff_p7'
p5223
asg11
I1539357897
ssS'packet-icq.c'
p5224
(dp5225
g3
(lp5226
sg5
(lp5227
S'proto_register_icq'
p5228
asg8
(lp5229
S'proto_reg_handoff_icq'
p5230
asg11
I1539357832
ssS'packet-dcerpc-dtsprovider.c'
p5231
(dp5232
g3
(lp5233
sg5
(lp5234
S'proto_register_dtsprovider'
p5235
asg8
(lp5236
S'proto_reg_handoff_dtsprovider'
p5237
asg11
I1539357752
ssS'packet-beep.c'
p5238
(dp5239
g3
(lp5240
sg5
(lp5241
S'proto_register_beep'
p5242
asg8
(lp5243
S'proto_reg_handoff_beep'
p5244
asg11
I1539357921
ssS'packet-cmp.c'
p5245
(dp5246
g3
(lp5247
sg5
(lp5248
S'proto_register_cmp'
p5249
asg8
(lp5250
S'proto_reg_handoff_cmp'
p5251
asg11
I1539357705
ssS'packet-ypserv.c'
p5252
(dp5253
g3
(lp5254
sg5
(lp5255
S'proto_register_ypserv'
p5256
asg8
(lp5257
S'proto_reg_handoff_ypserv'
p5258
asg11
I1539357666
ssS'packet-ses.c'
p5259
(dp5260
g3
(lp5261
sg5
(lp5262
S'proto_register_ses'
p5263
asg8
(lp5264
S'proto_reg_handoff_ses'
p5265
asg11
I1539357784
ssS'packet-isup.c'
p5266
(dp5267
g3
(lp5268
sg5
(lp5269
S'proto_register_isup'
p5270
aS'proto_register_bicc'
p5271
asg8
(lp5272
S'proto_reg_handoff_isup'
p5273
aS'proto_reg_handoff_bicc'
p5274
asg11
I1539358012
ssS'packet-nt-tpcp.c'
p5275
(dp5276
g3
(lp5277
sg5
(lp5278
S'proto_register_tpcp'
p5279
asg8
(lp5280
S'proto_reg_handoff_tpcp'
p5281
asg11
I1539357848
ssS'packet-ipmi.c'
p5282
(dp5283
g3
(lp5284
sg5
(lp5285
S'proto_register_ipmi'
p5286
asg8
(lp5287
S'proto_reg_handoff_ipmi'
p5288
asg11
I1539357909
ssS'packet-dcerpc-rs_plcy.c'
p5289
(dp5290
g3
(lp5291
sg5
(lp5292
S'proto_register_dcerpc_rs_plcy'
p5293
asg8
(lp5294
S'proto_reg_handoff_dcerpc_rs_plcy'
p5295
asg11
I1539357707
ssS'packet-bacnet.c'
p5296
(dp5297
g3
(lp5298
sg5
(lp5299
S'proto_register_bacnet'
p5300
asg8
(lp5301
S'proto_reg_handoff_bacnet'
p5302
asg11
I1539357827
ssS'packet-gpef.c'
p5303
(dp5304
g3
(lp5305
sg5
(lp5306
S'proto_register_gpef'
p5307
asg8
(lp5308
S'proto_reg_handoff_gpef'
p5309
asg11
I1539357667
ssS'packet-lapd.c'
p5310
(dp5311
g3
(lp5312
sg5
(lp5313
S'proto_register_lapd'
p5314
asg8
(lp5315
S'proto_reg_handoff_lapd'
p5316
asg11
I1539357751
ssS'packet-turnchannel.c'
p5317
(dp5318
g3
(lp5319
sg5
(lp5320
S'proto_register_turnchannel'
p5321
asg8
(lp5322
S'proto_reg_handoff_turnchannel'
p5323
asg11
I1539357871
ssS'packet-quakeworld.c'
p5324
(dp5325
g3
(lp5326
sg5
(lp5327
S'proto_register_quakeworld'
p5328
asg8
(lp5329
S'proto_reg_handoff_quakeworld'
p5330
asg11
I1539357848
ssS'packet-pcnfsd.c'
p5331
(dp5332
g3
(lp5333
sg5
(lp5334
S'proto_register_pcnfsd'
p5335
asg8
(lp5336
S'proto_reg_handoff_pcnfsd'
p5337
asg11
I1539357677
ssS'packet-ntlmssp.c'
p5338
(dp5339
g3
(lp5340
sg5
(lp5341
S'proto_register_ntlmssp'
p5342
asg8
(lp5343
S'proto_reg_handoff_ntlmssp'
p5344
asg11
I1539357887
ssS'packet-rlc-lte.c'
p5345
(dp5346
g3
(lp5347
sg5
(lp5348
S'proto_register_rlc_lte'
p5349
asg8
(lp5350
sg11
I1539357721
ssS'packet-redback.c'
p5351
(dp5352
g3
(lp5353
sg5
(lp5354
S'proto_register_redback'
p5355
asg8
(lp5356
S'proto_reg_handoff_redback'
p5357
asg11
I1539357783
ssS'packet-t30.c'
p5358
(dp5359
g3
(lp5360
sg5
(lp5361
S'proto_register_t30'
p5362
asg8
(lp5363
S'proto_reg_handoff_t30'
p5364
asg11
I1539357755
ssS'packet-asf.c'
p5365
(dp5366
g3
(lp5367
sg5
(lp5368
S'proto_register_asf'
p5369
asg8
(lp5370
S'proto_reg_handoff_asf'
p5371
asg11
I1539357668
ssS'packet-pcep.c'
p5372
(dp5373
g3
(lp5374
sg5
(lp5375
S'proto_register_pcep'
p5376
asg8
(lp5377
S'proto_reg_handoff_pcep'
p5378
asg11
I1539357736
ssS'packet-pktgen.c'
p5379
(dp5380
g3
(lp5381
sg5
(lp5382
S'proto_register_pktgen'
p5383
asg8
(lp5384
S'proto_reg_handoff_pktgen'
p5385
asg11
I1539357748
ssS'packet-app-pkix-cert.c'
p5386
(dp5387
g3
(lp5388
sg5
(lp5389
S'proto_register_cert'
p5390
asg8
(lp5391
S'proto_reg_handoff_cert'
p5392
asg11
I1539357670
ssS'packet-cosine.c'
p5393
(dp5394
g3
(lp5395
sg5
(lp5396
S'proto_register_cosine'
p5397
asg8
(lp5398
S'proto_reg_handoff_cosine'
p5399
asg11
I1539357778
ssS'packet-mstp.c'
p5400
(dp5401
g3
(lp5402
sg5
(lp5403
S'proto_register_mstp'
p5404
asg8
(lp5405
S'proto_reg_handoff_mstp'
p5406
asg11
I1539357903
ssS'packet-lanforge.c'
p5407
(dp5408
g3
(lp5409
sg5
(lp5410
S'proto_register_lanforge'
p5411
asg8
(lp5412
S'proto_reg_handoff_lanforge'
p5413
asg11
I1539357691
ssS'packet-tacacs.c'
p5414
(dp5415
g3
(lp5416
sg5
(lp5417
S'proto_register_tacacs'
p5418
aS'proto_register_tacplus'
p5419
asg8
(lp5420
S'proto_reg_handoff_tacacs'
p5421
aS'proto_reg_handoff_tacplus'
p5422
asg11
I1539357908
ssS'packet-cpha.c'
p5423
(dp5424
g3
(lp5425
sg5
(lp5426
S'proto_register_cpha'
p5427
asg8
(lp5428
S'proto_reg_handoff_cpha'
p5429
asg11
I1539357801
ssS'packet-jxta.c'
p5430
(dp5431
g3
(lp5432
sg5
(lp5433
S'proto_register_jxta'
p5434
asg8
(lp5435
S'proto_reg_handoff_jxta'
p5436
asg11
I1539357681
ssS'packet-giop.c'
p5437
(dp5438
g3
(lp5439
sg5
(lp5440
S'proto_register_giop'
p5441
asg8
(lp5442
S'proto_reg_handoff_giop'
p5443
asg11
I1539357881
ssS'packet-isis-lsp.c'
p5444
(dp5445
g3
(lp5446
sg5
(lp5447
sg8
(lp5448
sg11
I1539357828
ssS'packet-aim-email.c'
p5449
(dp5450
g3
(lp5451
sg5
(lp5452
S'proto_register_aim_email'
p5453
asg8
(lp5454
S'proto_reg_handoff_aim_email'
p5455
asg11
I1539357815
ssS'packet-dcerpc-browser.c'
p5456
(dp5457
g3
(lp5458
sg5
(lp5459
S'proto_register_dcerpc_browser'
p5460
asg8
(lp5461
S'proto_reg_handoff_dcerpc_browser'
p5462
asg11
I1539357775
ssS'packet-olsr.c'
p5463
(dp5464
g3
(lp5465
sg5
(lp5466
S'proto_register_olsr'
p5467
asg8
(lp5468
S'proto_reg_handoff_olsr'
p5469
asg11
I1539357674
ssS'packet-dcerpc-rdaclif.c'
p5470
(dp5471
g3
(lp5472
sg5
(lp5473
S'proto_register_rdaclif'
p5474
asg8
(lp5475
S'proto_reg_handoff_rdaclif'
p5476
asg11
I1539357724
ssS'packet-actrace.c'
p5477
(dp5478
g3
(lp5479
sg5
(lp5480
S'proto_register_actrace'
p5481
asg8
(lp5482
S'proto_reg_handoff_actrace'
p5483
asg11
I1539357756
ssS'packet-dpnss-link.c'
p5484
(dp5485
g3
(lp5486
sg5
(lp5487
S'proto_register_dpnss_link'
p5488
asg8
(lp5489
S'proto_reg_handoff_dpnss_link'
p5490
asg11
I1539357646
ssS'packet-dcerpc-wkssvc.c'
p5491
(dp5492
g3
(lp5493
sg5
(lp5494
S'proto_register_dcerpc_wkssvc'
p5495
asg8
(lp5496
S'proto_reg_handoff_dcerpc_wkssvc'
p5497
asg11
I1539357961
ssS'packet-nfsacl.c'
p5498
(dp5499
g3
(lp5500
sg5
(lp5501
S'proto_register_nfsacl'
p5502
asg8
(lp5503
S'proto_reg_handoff_nfsacl'
p5504
asg11
I1539357815
ssS'packet-g723.c'
p5505
(dp5506
g3
(lp5507
sg5
(lp5508
S'proto_register_g723'
p5509
asg8
(lp5510
S'proto_reg_handoff_g723'
p5511
asg11
I1539357863
ssS'packet-frame.c'
p5512
(dp5513
g3
(lp5514
sg5
(lp5515
S'proto_register_frame'
p5516
asg8
(lp5517
S'proto_reg_handoff_frame'
p5518
asg11
I1539357659
ssS'packet-rquota.c'
p5519
(dp5520
g3
(lp5521
sg5
(lp5522
S'proto_register_rquota'
p5523
asg8
(lp5524
S'proto_reg_handoff_rquota'
p5525
asg11
I1539357755
ssS'packet-dpnss.c'
p5526
(dp5527
g3
(lp5528
sg5
(lp5529
S'proto_register_dpnss'
p5530
asg8
(lp5531
sg11
I1539357678
ssS'packet-dcc.c'
p5532
(dp5533
g3
(lp5534
sg5
(lp5535
S'proto_register_dcc'
p5536
asg8
(lp5537
S'proto_reg_handoff_dcc'
p5538
asg11
I1539357775
ssS'packet-netbios.c'
p5539
(dp5540
g3
(lp5541
sg5
(lp5542
S'proto_register_netbios'
p5543
asg8
(lp5544
S'proto_reg_handoff_netbios'
p5545
asg11
I1539357751
ssS'packet-h1.c'
p5546
(dp5547
g3
(lp5548
sg5
(lp5549
S'proto_register_h1'
p5550
asg8
(lp5551
S'proto_reg_handoff_h1'
p5552
asg11
I1539357673
ssS'packet-cigi.c'
p5553
(dp5554
g3
(lp5555
sg5
(lp5556
S'proto_register_cigi'
p5557
asg8
(lp5558
S'proto_reg_handoff_cigi'
p5559
asg11
I1539357855
ssS'packet-smb-sidsnooping.c'
p5560
(dp5561
g3
(lp5562
sg5
(lp5563
S'proto_register_smb_sidsnooping'
p5564
asg8
(lp5565
S'proto_reg_handoff_smb_sidsnooping'
p5566
asg11
I1539357661
ssS'packet-dcerpc-llb.c'
p5567
(dp5568
g3
(lp5569
sg5
(lp5570
S'proto_register_llb'
p5571
asg8
(lp5572
S'proto_reg_handoff_llb'
p5573
asg11
I1539357764
ssS'packet-fcoe.c'
p5574
(dp5575
g3
(lp5576
sg5
(lp5577
S'proto_register_fcoe'
p5578
asg8
(lp5579
S'proto_reg_handoff_fcoe'
p5580
asg11
I1539357667
ssS'packet-dcerpc-efs.c'
p5581
(dp5582
g3
(lp5583
sg5
(lp5584
S'proto_register_dcerpc_efs'
p5585
asg8
(lp5586
S'proto_reg_handoff_dcerpc_efs'
p5587
asg11
I1539357910
ssS'packet-x224.c'
p5588
(dp5589
g3
(lp5590
sg5
(lp5591
S'proto_register_x224'
p5592
asg8
(lp5593
S'proto_reg_handoff_x224'
p5594
asg11
I1539357735
ssS'packet-mtp3mg.c'
p5595
(dp5596
g3
(lp5597
sg5
(lp5598
S'proto_register_mtp3mg'
p5599
asg8
(lp5600
S'proto_reg_handoff_mtp3mg'
p5601
asg11
I1539357680
ssS'packet-acn.c'
p5602
(dp5603
g3
(lp5604
sg5
(lp5605
S'proto_register_acn'
p5606
asg8
(lp5607
S'proto_reg_handoff_acn'
p5608
asg11
I1539357837
ssS'packet-kadm5.c'
p5609
(dp5610
g3
(lp5611
sg5
(lp5612
S'proto_register_kadm5'
p5613
asg8
(lp5614
S'proto_reg_handoff_kadm5'
p5615
asg11
I1539357811
ssS'packet-cimetrics.c'
p5616
(dp5617
g3
(lp5618
sg5
(lp5619
S'proto_register_cimetrics'
p5620
asg8
(lp5621
S'proto_reg_handoff_cimetrics'
p5622
asg11
I1539357896
ssS'packet-ssh.c'
p5623
(dp5624
g3
(lp5625
sg5
(lp5626
S'proto_register_ssh'
p5627
asg8
(lp5628
S'proto_reg_handoff_ssh'
p5629
asg11
I1539357680
ssS'packet-ieee802a.c'
p5630
(dp5631
g3
(lp5632
sg5
(lp5633
S'proto_register_ieee802a'
p5634
asg8
(lp5635
S'proto_reg_handoff_ieee802a'
p5636
asg11
I1539357735
ssS'packet-msdp.c'
p5637
(dp5638
g3
(lp5639
sg5
(lp5640
S'proto_register_msdp'
p5641
asg8
(lp5642
S'proto_reg_handoff_msdp'
p5643
asg11
I1539357844
ssS'packet-aim-chatnav.c'
p5644
(dp5645
g3
(lp5646
sg5
(lp5647
S'proto_register_aim_chatnav'
p5648
asg8
(lp5649
S'proto_reg_handoff_aim_chatnav'
p5650
asg11
I1539357665
ssS'packet-who.c'
p5651
(dp5652
g3
(lp5653
sg5
(lp5654
S'proto_register_who'
p5655
asg8
(lp5656
S'proto_reg_handoff_who'
p5657
asg11
I1539357694
ssS'packet-wsmp.c'
p5658
(dp5659
g3
(lp5660
sg5
(lp5661
S'proto_register_wsmp'
p5662
asg8
(lp5663
S'proto_reg_handoff_wsmp'
p5664
asg11
I1539357912
ssS'packet-l2tp.c'
p5665
(dp5666
g3
(lp5667
sg5
(lp5668
S'proto_register_l2tp'
p5669
asg8
(lp5670
S'proto_reg_handoff_l2tp'
p5671
asg11
I1539357858
ssS'packet-ax4000.c'
p5672
(dp5673
g3
(lp5674
sg5
(lp5675
S'proto_register_ax4000'
p5676
asg8
(lp5677
S'proto_reg_handoff_ax4000'
p5678
asg11
I1539357832
ssS'packet-tr.c'
p5679
(dp5680
g3
(lp5681
sg5
(lp5682
S'proto_register_tr'
p5683
asg8
(lp5684
S'proto_reg_handoff_tr'
p5685
asg11
I1539357714
ssS'packet-laplink.c'
p5686
(dp5687
g3
(lp5688
sg5
(lp5689
S'proto_register_laplink'
p5690
asg8
(lp5691
S'proto_reg_handoff_laplink'
p5692
asg11
I1539357762
ssS'packet-mtp2.c'
p5693
(dp5694
g3
(lp5695
sg5
(lp5696
S'proto_register_mtp2'
p5697
asg8
(lp5698
S'proto_reg_handoff_mtp2'
p5699
asg11
I1539357845
ssS'packet-echo.c'
p5700
(dp5701
g3
(lp5702
sg5
(lp5703
S'proto_register_echo'
p5704
asg8
(lp5705
S'proto_reg_handoff_echo'
p5706
asg11
I1539357851
ssS'packet-msnlb.c'
p5707
(dp5708
g3
(lp5709
sg5
(lp5710
S'proto_register_msnlb'
p5711
asg8
(lp5712
S'proto_reg_handoff_msnlb'
p5713
asg11
I1539357783
ssS'packet-hyperscsi.c'
p5714
(dp5715
g3
(lp5716
sg5
(lp5717
S'proto_register_hyperscsi'
p5718
asg8
(lp5719
S'proto_reg_handoff_hyperscsi'
p5720
asg11
I1539357743
ssS'packet-aim-invitation.c'
p5721
(dp5722
g3
(lp5723
sg5
(lp5724
S'proto_register_aim_invitation'
p5725
asg8
(lp5726
S'proto_reg_handoff_aim_invitation'
p5727
asg11
I1539357708
ssS'packet-nhrp.c'
p5728
(dp5729
g3
(lp5730
sg5
(lp5731
S'proto_register_nhrp'
p5732
asg8
(lp5733
S'proto_reg_handoff_nhrp'
p5734
asg11
I1539357668
ssS'packet-ctdb.c'
p5735
(dp5736
g3
(lp5737
sg5
(lp5738
S'proto_register_ctdb'
p5739
asg8
(lp5740
S'proto_reg_handoff_ctdb'
p5741
asg11
I1539357661
ssS'packet-isdn.c'
p5742
(dp5743
g3
(lp5744
sg5
(lp5745
S'proto_register_isdn'
p5746
asg8
(lp5747
S'proto_reg_handoff_isdn'
p5748
asg11
I1539357755
ssS'packet-ans.c'
p5749
(dp5750
g3
(lp5751
sg5
(lp5752
S'proto_register_ans'
p5753
asg8
(lp5754
S'proto_reg_handoff_ans'
p5755
asg11
I1539357772
ssS'packet-xml.c'
p5756
(dp5757
g3
(lp5758
sg5
(lp5759
S'proto_register_xml'
p5760
asg8
(lp5761
S'proto_reg_handoff_xml'
p5762
asg11
I1539357837
ssS'packet-scsi-osd.c'
p5763
(dp5764
g3
(lp5765
sg5
(lp5766
S'proto_register_scsi_osd'
p5767
asg8
(lp5768
S'proto_reg_handoff_scsi_osd'
p5769
asg11
I1539357767
ssS'packet-srp.c'
p5770
(dp5771
g3
(lp5772
sg5
(lp5773
S'proto_register_ccsrl'
p5774
aS'proto_register_srp'
p5775
asg8
(lp5776
S'proto_reg_handoff_srp'
p5777
asg11
I1539357802
ssS'packet-isis-snp.c'
p5778
(dp5779
g3
(lp5780
sg5
(lp5781
sg8
(lp5782
sg11
I1539357682
ssS'packet-bjnp.c'
p5783
(dp5784
g3
(lp5785
sg5
(lp5786
S'proto_register_bjnp'
p5787
asg8
(lp5788
S'proto_reg_handoff_bjnp'
p5789
asg11
I1539357742
ssS'packet-sdp.c'
p5790
(dp5791
g3
(lp5792
sg5
(lp5793
S'proto_register_sdp'
p5794
asg8
(lp5795
S'proto_reg_handoff_sdp'
p5796
asg11
I1539357675
ssS'packet-sna.c'
p5797
(dp5798
g3
(lp5799
sg5
(lp5800
S'proto_register_sna'
p5801
asg8
(lp5802
S'proto_reg_handoff_sna'
p5803
asg11
I1539357762
ssS'packet-fmp.c'
p5804
(dp5805
g3
(lp5806
sg5
(lp5807
S'proto_register_fmp'
p5808
asg8
(lp5809
S'proto_reg_handoff_fmp'
p5810
asg11
I1539357816
ssS'packet-lwapp.c'
p5811
(dp5812
g3
(lp5813
sg5
(lp5814
S'proto_register_lwapp'
p5815
asg8
(lp5816
S'proto_reg_handoff_lwapp'
p5817
asg11
I1539357838
ssS'packet-smb-pipe.c'
p5818
(dp5819
g3
(lp5820
sg5
(lp5821
S'proto_register_pipe_lanman'
p5822
aS'proto_register_pipe_dcerpc'
p5823
aS'proto_register_smb_pipe'
p5824
asg8
(lp5825
S'proto_reg_handoff_smb_pipe'
p5826
asg11
I1539357859
ssS'packet-dcerpc-rs_repadm.c'
p5827
(dp5828
g3
(lp5829
sg5
(lp5830
S'proto_register_rs_repadm'
p5831
asg8
(lp5832
S'proto_reg_handoff_rs_repadm'
p5833
asg11
I1539357679
ssS'packet-rlogin.c'
p5834
(dp5835
g3
(lp5836
sg5
(lp5837
S'proto_register_rlogin'
p5838
asg8
(lp5839
S'proto_reg_handoff_rlogin'
p5840
asg11
I1539357813
ssS'packet-cip.c'
p5841
(dp5842
g3
(lp5843
sg5
(lp5844
S'proto_register_cip'
p5845
asg8
(lp5846
S'proto_reg_handoff_cip'
p5847
asg11
I1539357942
ss.